ASxxxx Linker V03.00/V05.40 + sdld,  page 1.
Hexadecimal  [32-Bits]

Area                       Addr        Size        Decimal Bytes (Attributes)
--------------------       ----        ----        ------- ----- ------------
.  .ABS.               00000000    00000000 =           0. bytes (ABS,CON)

        Value  Global            Value  Global            Value  Global    
        -----  ------            -----  ------            -----  ------    
     00000000  .__.ABS.  |    00000000  _rRAMG    |    00000000  l__BASE  
     00000000  l__BSS    |    00000000  l__CABS   |    00000000  l__CODE_0
     00000000  l__DABS   |    00000000  l__FONT_H |    00000000  l__HEADER
     00000000  l__HEADER |    00000000  l__HEAP   |    00000000  l__HEAP_E
     00000000  l__HRAM   |    00000000  l__LIT    |    00000000  s__CABS  
     00000000  s__DABS   |    00000000  s__FONT_H |    00000000  s__FONT_H
     00000000  s__HEADER |    00000000  s__HEADER |    00000000  s__HEADER
     00000000  s__HEADER |    00000000  s__HEADER |    00000000  s__HEADER
     00000000  s__HEADER |    00000000  s__HEADER |    00000000  s__HEADER
     00000000  s__HEADER |    00000000  s__HEADER |    00000000  s__HEADER
     00000000  s__HEADER |    00000000  s__HEADER |    00000000  s__HEADER
     00000000  s__HEADER |    00000000  s__HEADER |    00000000  s__HEADER
     00000000  s__HEADER |    00000000  s__HEADER |    00000000  s__HEADER
     00000000  s__HRAM   |    00000000  s__HRAM12 |    00000001  ___bank_b
     00000001  ___bank_b |    00000001  ___bank_b |    00000001  ___bank_n
     00000001  ___bank_p |    00000001  ___bank_r |    00000001  ___bank_t
     00000001  l__GSFINA |    00000001  l__HEADER |    00000001  l__HEADER
     00000001  l__HEADER |    00000001  l__HEADER |    00000001  l__HEADER
     00000001  l__HEADER |    00000001  l__HEADER |    00000002  ___bank_b
     00000002  ___bank_b |    00000002  ___bank_m |    00000002  ___bank_s
     00000002  ___bank_s |    00000002  l__HEADER |    00000002  l__HEADER
     00000002  l__HEADER |    00000003  l__FONT_H |    00000003  l__HEADER
     00000003  l__HEADER |    00000003  l__HRAM12 |    00000005  l__HEADER
     00000006  l__HEADER |    00000007  l__HEADER |    00000008  l__HEADER
     0000000C  l__GSINIT |    00000030  l__HEADER |    0000005C  l__HEADER
     000000AF  l__HEADER |    000001AF  l__DATA   |    00000200  s__CODE  
     000007BA  l__INITIA |    000007BA  l__INITIA |    00000901  l__HOME  
     00001571  l__CODE_1 |    000017CF  l__CODE   |    000019CF  s__HOME  
     00002000  _rROMB0   |    000022D0  s__BASE   |    000022D0  s__CODE_0
     000022D0  s__INITIA |    000022D0  s__LIT    |    00002A8A  s__GSINIT
     00002A96  s__GSFINA |    00003000  _rROMB1   |    000030C1  l__CODE_2
     00004000  _rRAMB    |    00008000  __VRAM    |    00008000  __VRAM800
     00008800  __VRAM880 |    00009000  __VRAM900 |    00009800  __SCRN0  
     00009C00  __SCRN1   |    0000A000  __SRAM    |    0000C000  __RAM    
     0000C000  _shadow_O |    0000C0A0  s__DATA   |    0000C24F  s__BSS   
     0000C24F  s__INITIA |    0000CA09  s__HEAP   |    0000CA09  s__HEAP_E
     0000D000  __RAMBANK |    0000E000  .STACK    |    0000FE00  __OAMRAM 
     0000FF00  _P1_REG   |    0000FF00  __IO      |    0000FF01  _SB_REG  
     0000FF02  _SC_REG   |    0000FF04  _DIV_REG  |    0000FF05  _TIMA_REG
     0000FF06  _TMA_REG  |    0000FF07  _TAC_REG  |    0000FF0F  _IF_REG  
     0000FF10  _NR10_REG |    0000FF11  _NR11_REG |    0000FF12  _NR12_REG
     0000FF13  _NR13_REG |    0000FF14  _NR14_REG |    0000FF16  _NR21_REG
     0000FF17  _NR22_REG |    0000FF18  _NR23_REG |    0000FF19  _NR24_REG
     0000FF1A  _NR30_REG |    0000FF1B  _NR31_REG |    0000FF1C  _NR32_REG
     0000FF1D  _NR33_REG |    0000FF1E  _NR34_REG |    0000FF20  _NR41_REG
     0000FF21  _NR42_REG |    0000FF22  _NR43_REG |    0000FF23  _NR44_REG
     0000FF24  _NR50_REG |    0000FF25  _NR51_REG |    0000FF26  _NR52_REG
     0000FF30  _AUD3WAVE |    0000FF30  _PCM_SAMP |    0000FF30  __AUD3WAV
     0000FF40  _LCDC_REG |    0000FF41  _STAT_REG |    0000FF42  _SCY_REG 
     0000FF43  _SCX_REG  |    0000FF44  _LY_REG   |    0000FF45  _LYC_REG 
ASxxxx Linker V03.00/V05.40 + sdld,  page 2.
Hexadecimal  [32-Bits]

Area                       Addr        Size        Decimal Bytes (Attributes)
--------------------       ----        ----        ------- ----- ------------
.  .ABS.               00000000    00000000 =           0. bytes (ABS,CON)

        Value  Global            Value  Global            Value  Global    
        -----  ------            -----  ------            -----  ------    
     0000FF46  _DMA_REG  |    0000FF47  _BGP_REG  |    0000FF48  _OBP0_REG
     0000FF49  _OBP1_REG |    0000FF4A  _WY_REG   |    0000FF4B  _WX_REG  
     0000FF4D  _KEY1_REG |    0000FF4F  _VBK_REG  |    0000FF51  _HDMA1_RE
     0000FF52  _HDMA2_RE |    0000FF53  _HDMA3_RE |    0000FF54  _HDMA4_RE
     0000FF55  _HDMA5_RE |    0000FF56  _RP_REG   |    0000FF68  _BCPS_REG
     0000FF69  _BCPD_REG |    0000FF6A  _OCPS_REG |    0000FF6B  _OCPD_REG
     0000FF70  _SVBK_REG |    0000FF76  _PCM12_RE |    0000FF77  _PCM34_RE
     0000FF80  .refresh_ |    0000FF80  __HRAM    |    0000FFFF  _IE_REG  
     00014000  s__CODE_1 |    00024000  s__CODE_2
ASxxxx Linker V03.00/V05.40 + sdld,  page 3.
Hexadecimal  [32-Bits]

Area                       Addr        Size        Decimal Bytes (Attributes)
--------------------       ----        ----        ------- ----- ------------
_CODE                  00000200    000017CF =        6095. bytes (REL,CON)

        Value  Global            Value  Global            Value  Global    
        -----  ------            -----  ------            -----  ------    
     00000200  A$attribu |    00000200  C$attribu |    00000200  C$attribu
     00000200  G$init_at |    00000200  _init_att |    00000203  A$attribu
     00000205  A$attribu |    00000206  A$attribu |    00000208  A$attribu
     00000208  C$attribu |    0000020B  A$attribu |    0000020D  A$attribu
     0000020E  A$attribu |    00000210  A$attribu |    00000210  C$attribu
     00000213  A$attribu |    00000215  A$attribu |    00000216  A$attribu
     00000218  A$attribu |    00000218  C$attribu |    0000021B  A$attribu
     0000021D  A$attribu |    0000021E  A$attribu |    00000220  A$attribu
     00000220  C$attribu |    00000223  A$attribu |    00000225  A$attribu
     00000225  C$attribu |    00000228  A$attribu |    0000022A  A$attribu
     0000022B  A$attribu |    0000022D  A$attribu |    0000022D  C$attribu
     00000230  A$attribu |    00000232  A$attribu |    00000233  A$attribu
     00000235  A$attribu |    00000235  C$attribu |    00000238  A$attribu
     0000023A  A$attribu |    0000023B  A$attribu |    0000023D  A$attribu
     0000023D  C$attribu |    00000240  A$attribu |    00000242  A$attribu
     00000243  A$attribu |    00000245  A$attribu |    00000245  C$attribu
     00000248  A$attribu |    0000024A  A$attribu |    0000024B  A$attribu
     0000024D  A$attribu |    0000024D  C$attribu |    00000250  A$attribu
     00000252  A$attribu |    00000253  A$attribu |    00000255  A$attribu
     00000255  C$attribu |    00000258  A$attribu |    00000259  A$attribu
     0000025A  A$attribu |    0000025B  A$attribu |    0000025B  C$attribu
     0000025E  A$attribu |    00000260  A$attribu |    00000261  A$attribu
     00000263  A$attribu |    00000263  C$attribu |    00000266  A$attribu
     00000268  A$attribu |    00000269  A$attribu |    0000026B  A$attribu
     0000026B  C$attribu |    0000026E  A$attribu |    00000270  A$attribu
     00000271  A$attribu |    00000273  A$attribu |    00000273  C$attribu
     00000276  A$attribu |    00000278  A$attribu |    00000279  A$attribu
     0000027B  A$attribu |    0000027B  C$attribu |    0000027E  A$attribu
     00000280  A$attribu |    00000281  A$attribu |    00000283  A$attribu
     00000283  C$attribu |    00000286  A$attribu |    00000288  A$attribu
     00000289  A$attribu |    0000028B  A$attribu |    0000028B  C$attribu
     0000028E  A$attribu |    00000290  A$attribu |    00000291  A$attribu
     00000293  A$attribu |    00000293  C$attribu |    00000296  A$attribu
     00000298  A$attribu |    00000299  A$attribu |    0000029B  A$attribu
     0000029B  C$attribu |    0000029E  A$attribu |    000002A0  A$attribu
     000002A1  A$attribu |    000002A3  A$attribu |    000002A3  C$attribu
     000002A6  A$attribu |    000002A8  A$attribu |    000002A9  A$attribu
     000002AB  A$attribu |    000002AB  C$attribu |    000002AE  A$attribu
     000002B0  A$attribu |    000002B1  A$attribu |    000002B3  A$attribu
     000002B3  C$attribu |    000002B6  A$attribu |    000002B8  A$attribu
     000002B9  A$attribu |    000002BB  A$attribu |    000002BB  C$attribu
     000002BE  A$attribu |    000002C0  A$attribu |    000002C1  A$attribu
     000002C3  A$attribu |    000002C3  C$attribu |    000002C6  A$attribu
     000002C8  A$attribu |    000002C9  A$attribu |    000002CB  A$attribu
     000002CB  C$attribu |    000002CE  A$attribu |    000002D0  A$attribu
     000002D1  A$attribu |    000002D3  A$attribu |    000002D3  C$attribu
     000002D6  A$attribu |    000002D8  A$attribu |    000002D9  A$attribu
     000002DB  A$attribu |    000002DB  C$attribu |    000002DE  A$attribu
     000002E0  A$attribu |    000002E1  A$attribu |    000002E3  A$attribu
     000002E3  C$attribu |    000002E6  A$attribu |    000002E8  A$attribu
ASxxxx Linker V03.00/V05.40 + sdld,  page 4.
Hexadecimal  [32-Bits]

Area                       Addr        Size        Decimal Bytes (Attributes)
--------------------       ----        ----        ------- ----- ------------
_CODE                  00000200    000017CF =        6095. bytes (REL,CON)

        Value  Global            Value  Global            Value  Global    
        -----  ------            -----  ------            -----  ------    
     000002E9  A$attribu |    000002EB  A$attribu |    000002EB  C$attribu
     000002EE  A$attribu |    000002F0  A$attribu |    000002F1  A$attribu
     000002F3  A$attribu |    000002F3  C$attribu |    000002F6  A$attribu
     000002F8  A$attribu |    000002F9  A$attribu |    000002FB  A$attribu
     000002FB  C$attribu |    000002FE  A$attribu |    00000300  A$attribu
     00000301  A$attribu |    00000303  A$attribu |    00000303  C$attribu
     00000306  A$attribu |    00000308  A$attribu |    00000308  C$attribu
     0000030B  A$attribu |    0000030D  A$attribu |    0000030E  A$attribu
     00000310  A$attribu |    00000310  C$attribu |    00000313  A$attribu
     00000315  A$attribu |    00000316  A$attribu |    00000318  A$attribu
     00000318  C$attribu |    0000031B  A$attribu |    0000031D  A$attribu
     0000031E  A$attribu |    00000320  A$attribu |    00000320  C$attribu
     00000323  A$attribu |    00000325  A$attribu |    00000326  A$attribu
     00000328  A$attribu |    00000328  C$attribu |    0000032B  A$attribu
     0000032D  A$attribu |    0000032E  A$attribu |    00000330  A$attribu
     00000330  C$attribu |    00000333  A$attribu |    00000335  A$attribu
     00000336  A$attribu |    00000338  A$attribu |    00000338  C$attribu
     0000033B  A$attribu |    0000033C  A$attribu |    0000033D  A$attribu
     0000033E  A$attribu |    0000033E  C$attribu |    00000341  A$attribu
     00000343  A$attribu |    00000344  A$attribu |    00000346  A$attribu
     00000346  C$attribu |    00000349  A$attribu |    0000034B  A$attribu
     0000034C  A$attribu |    0000034E  A$attribu |    0000034E  C$attribu
     00000351  A$attribu |    00000353  A$attribu |    00000354  A$attribu
     00000356  A$attribu |    00000356  C$attribu |    00000359  A$attribu
     0000035B  A$attribu |    0000035C  A$attribu |    0000035E  A$attribu
     0000035E  C$attribu |    00000361  A$attribu |    00000363  A$attribu
     00000364  A$attribu |    00000366  A$attribu |    00000366  C$attribu
     00000369  A$attribu |    0000036B  A$attribu |    0000036C  A$attribu
     0000036E  A$attribu |    0000036E  C$attribu |    00000371  A$attribu
     00000373  A$attribu |    00000374  A$attribu |    00000376  A$attribu
     00000376  C$attribu |    00000379  A$attribu |    0000037B  A$attribu
     0000037C  A$attribu |    0000037E  A$attribu |    0000037E  C$attribu
     00000381  A$attribu |    00000383  A$attribu |    00000384  A$attribu
     00000386  A$attribu |    00000386  C$attribu |    00000389  A$attribu
     0000038B  A$attribu |    0000038C  A$attribu |    0000038E  A$attribu
     0000038E  C$attribu |    00000391  A$attribu |    00000393  A$attribu
     00000394  A$attribu |    00000396  A$attribu |    00000396  C$attribu
     00000399  A$attribu |    0000039B  A$attribu |    0000039C  A$attribu
     0000039E  A$attribu |    0000039E  C$attribu |    000003A1  A$attribu
     000003A3  A$attribu |    000003A4  A$attribu |    000003A6  A$attribu
     000003A6  C$attribu |    000003A9  A$attribu |    000003AB  A$attribu
     000003AC  A$attribu |    000003AE  A$attribu |    000003AE  C$attribu
     000003B1  A$attribu |    000003B3  A$attribu |    000003B4  A$attribu
     000003B6  A$attribu |    000003B6  C$attribu |    000003B9  A$attribu
     000003BB  A$attribu |    000003BC  A$attribu |    000003BE  A$attribu
     000003BE  C$attribu |    000003C1  A$attribu |    000003C3  A$attribu
     000003C4  A$attribu |    000003C6  A$attribu |    000003C6  C$attribu
     000003C9  A$attribu |    000003CB  A$attribu |    000003CC  A$attribu
     000003CE  A$attribu |    000003CE  C$attribu |    000003D1  A$attribu
     000003D3  A$attribu |    000003D4  A$attribu |    000003D6  A$attribu
     000003D6  C$attribu |    000003D9  A$attribu |    000003DB  A$attribu
ASxxxx Linker V03.00/V05.40 + sdld,  page 5.
Hexadecimal  [32-Bits]

Area                       Addr        Size        Decimal Bytes (Attributes)
--------------------       ----        ----        ------- ----- ------------
_CODE                  00000200    000017CF =        6095. bytes (REL,CON)

        Value  Global            Value  Global            Value  Global    
        -----  ------            -----  ------            -----  ------    
     000003DC  A$attribu |    000003DE  A$attribu |    000003DE  C$attribu
     000003E1  A$attribu |    000003E3  A$attribu |    000003E4  A$attribu
     000003E6  A$attribu |    000003E6  C$attribu |    000003E9  A$attribu
     000003EB  A$attribu |    000003EB  C$attribu |    000003EE  A$attribu
     000003F0  A$attribu |    000003F1  A$attribu |    000003F3  A$attribu
     000003F3  C$attribu |    000003F6  A$attribu |    000003F8  A$attribu
     000003F9  A$attribu |    000003FB  A$attribu |    000003FB  C$attribu
     000003FE  A$attribu |    00000400  A$attribu |    00000401  A$attribu
     00000403  A$attribu |    00000403  C$attribu |    00000406  A$attribu
     00000408  A$attribu |    00000409  A$attribu |    0000040B  A$attribu
     0000040B  C$attribu |    0000040E  A$attribu |    00000410  A$attribu
     00000411  A$attribu |    00000413  A$attribu |    00000413  C$attribu
     00000416  A$attribu |    00000418  A$attribu |    00000419  A$attribu
     0000041B  A$attribu |    0000041B  C$attribu |    0000041E  A$attribu
     0000041F  A$attribu |    00000420  A$attribu |    00000421  A$attribu
     00000421  C$attribu |    00000424  A$attribu |    00000426  A$attribu
     00000427  A$attribu |    00000429  A$attribu |    00000429  C$attribu
     0000042C  A$attribu |    0000042E  A$attribu |    0000042F  A$attribu
     00000431  A$attribu |    00000431  C$attribu |    00000434  A$attribu
     00000436  A$attribu |    00000437  A$attribu |    00000439  A$attribu
     00000439  C$attribu |    0000043C  A$attribu |    0000043E  A$attribu
     0000043F  A$attribu |    00000441  A$attribu |    00000441  C$attribu
     00000444  A$attribu |    00000446  A$attribu |    00000447  A$attribu
     00000449  A$attribu |    00000449  C$attribu |    0000044C  A$attribu
     0000044E  A$attribu |    0000044F  A$attribu |    00000451  A$attribu
     00000451  C$attribu |    00000454  A$attribu |    00000456  A$attribu
     00000457  A$attribu |    00000459  A$attribu |    00000459  C$attribu
     0000045C  A$attribu |    0000045E  A$attribu |    0000045F  A$attribu
     00000461  A$attribu |    00000461  C$attribu |    00000464  A$attribu
     00000466  A$attribu |    00000467  A$attribu |    00000469  A$attribu
     00000469  C$attribu |    0000046C  A$attribu |    0000046E  A$attribu
     0000046F  A$attribu |    00000471  A$attribu |    00000471  C$attribu
     00000474  A$attribu |    00000476  A$attribu |    00000477  A$attribu
     00000479  A$attribu |    00000479  C$attribu |    0000047C  A$attribu
     0000047E  A$attribu |    0000047F  A$attribu |    00000481  A$attribu
     00000481  C$attribu |    00000484  A$attribu |    00000486  A$attribu
     00000487  A$attribu |    00000489  A$attribu |    00000489  C$attribu
     0000048C  A$attribu |    0000048E  A$attribu |    0000048F  A$attribu
     00000491  A$attribu |    00000491  C$attribu |    00000494  A$attribu
     00000496  A$attribu |    00000497  A$attribu |    00000499  A$attribu
     00000499  C$attribu |    0000049C  A$attribu |    0000049E  A$attribu
     0000049F  A$attribu |    000004A1  A$attribu |    000004A1  C$attribu
     000004A4  A$attribu |    000004A6  A$attribu |    000004A7  A$attribu
     000004A9  A$attribu |    000004A9  C$attribu |    000004AC  A$attribu
     000004AE  A$attribu |    000004AF  A$attribu |    000004B1  A$attribu
     000004B1  C$attribu |    000004B4  A$attribu |    000004B6  A$attribu
     000004B7  A$attribu |    000004B9  A$attribu |    000004B9  C$attribu
     000004BC  A$attribu |    000004BE  A$attribu |    000004BF  A$attribu
     000004C1  A$attribu |    000004C1  C$attribu |    000004C4  A$attribu
     000004C6  A$attribu |    000004C7  A$attribu |    000004C9  A$attribu
     000004C9  C$attribu |    000004CC  A$attribu |    000004CE  A$attribu
ASxxxx Linker V03.00/V05.40 + sdld,  page 6.
Hexadecimal  [32-Bits]

Area                       Addr        Size        Decimal Bytes (Attributes)
--------------------       ----        ----        ------- ----- ------------
_CODE                  00000200    000017CF =        6095. bytes (REL,CON)

        Value  Global            Value  Global            Value  Global    
        -----  ------            -----  ------            -----  ------    
     000004CE  C$attribu |    000004D1  A$attribu |    000004D3  A$attribu
     000004D4  A$attribu |    000004D6  A$attribu |    000004D6  C$attribu
     000004D9  A$attribu |    000004DB  A$attribu |    000004DC  A$attribu
     000004DE  A$attribu |    000004DE  C$attribu |    000004E1  A$attribu
     000004E3  A$attribu |    000004E4  A$attribu |    000004E6  A$attribu
     000004E6  C$attribu |    000004E9  A$attribu |    000004EB  A$attribu
     000004EC  A$attribu |    000004EE  A$attribu |    000004EE  C$attribu
     000004F1  A$attribu |    000004F3  A$attribu |    000004F4  A$attribu
     000004F6  A$attribu |    000004F6  C$attribu |    000004F9  A$attribu
     000004FB  A$attribu |    000004FC  A$attribu |    000004FE  A$attribu
     000004FE  C$attribu |    00000501  A$attribu |    00000502  A$attribu
     00000503  A$attribu |    00000504  A$attribu |    00000504  C$attribu
     00000507  A$attribu |    00000509  A$attribu |    0000050A  A$attribu
     0000050C  A$attribu |    0000050C  C$attribu |    0000050F  A$attribu
     00000511  A$attribu |    00000512  A$attribu |    00000514  A$attribu
     00000514  C$attribu |    00000517  A$attribu |    00000519  A$attribu
     0000051A  A$attribu |    0000051C  A$attribu |    0000051C  C$attribu
     0000051F  A$attribu |    00000521  A$attribu |    00000522  A$attribu
     00000524  A$attribu |    00000524  C$attribu |    00000527  A$attribu
     00000529  A$attribu |    0000052A  A$attribu |    0000052C  A$attribu
     0000052C  C$attribu |    0000052F  A$attribu |    00000531  A$attribu
     00000532  A$attribu |    00000534  A$attribu |    00000534  C$attribu
     00000537  A$attribu |    00000539  A$attribu |    0000053A  A$attribu
     0000053C  A$attribu |    0000053C  C$attribu |    0000053F  A$attribu
     00000541  A$attribu |    00000542  A$attribu |    00000544  A$attribu
     00000544  C$attribu |    00000547  A$attribu |    00000549  A$attribu
     0000054A  A$attribu |    0000054C  A$attribu |    0000054C  C$attribu
     0000054F  A$attribu |    00000551  A$attribu |    00000552  A$attribu
     00000554  A$attribu |    00000554  C$attribu |    00000557  A$attribu
     00000559  A$attribu |    0000055A  A$attribu |    0000055C  A$attribu
     0000055C  C$attribu |    0000055F  A$attribu |    00000561  A$attribu
     00000562  A$attribu |    00000564  A$attribu |    00000564  C$attribu
     00000567  A$attribu |    00000569  A$attribu |    0000056A  A$attribu
     0000056C  A$attribu |    0000056C  C$attribu |    0000056F  A$attribu
     00000571  A$attribu |    00000572  A$attribu |    00000574  A$attribu
     00000574  C$attribu |    00000577  A$attribu |    00000579  A$attribu
     0000057A  A$attribu |    0000057C  A$attribu |    0000057C  C$attribu
     0000057F  A$attribu |    00000581  A$attribu |    00000582  A$attribu
     00000584  A$attribu |    00000584  C$attribu |    00000587  A$attribu
     00000589  A$attribu |    0000058A  A$attribu |    0000058C  A$attribu
     0000058C  C$attribu |    0000058F  A$attribu |    00000591  A$attribu
     00000592  A$attribu |    00000594  A$attribu |    00000594  C$attribu
     00000597  A$attribu |    00000599  A$attribu |    0000059A  A$attribu
     0000059C  A$attribu |    0000059C  C$attribu |    0000059F  A$attribu
     000005A1  A$attribu |    000005A2  A$attribu |    000005A4  A$attribu
     000005A4  C$attribu |    000005A7  A$attribu |    000005A9  A$attribu
     000005AA  A$attribu |    000005AC  A$attribu |    000005AC  C$attribu
     000005AF  A$attribu |    000005B1  A$attribu |    000005B1  C$attribu
     000005B4  A$attribu |    000005B5  A$attribu |    000005B6  A$attribu
     000005B7  A$attribu |    000005B7  C$attribu |    000005BA  A$attribu
     000005BC  A$attribu |    000005BD  A$attribu |    000005BF  A$attribu
ASxxxx Linker V03.00/V05.40 + sdld,  page 7.
Hexadecimal  [32-Bits]

Area                       Addr        Size        Decimal Bytes (Attributes)
--------------------       ----        ----        ------- ----- ------------
_CODE                  00000200    000017CF =        6095. bytes (REL,CON)

        Value  Global            Value  Global            Value  Global    
        -----  ------            -----  ------            -----  ------    
     000005BF  C$attribu |    000005C2  A$attribu |    000005C4  A$attribu
     000005C5  A$attribu |    000005C7  A$attribu |    000005C7  C$attribu
     000005CA  A$attribu |    000005CC  A$attribu |    000005CD  A$attribu
     000005CF  A$attribu |    000005CF  C$attribu |    000005D2  A$attribu
     000005D4  A$attribu |    000005D5  A$attribu |    000005D7  A$attribu
     000005D7  C$attribu |    000005DA  A$attribu |    000005DC  A$attribu
     000005DD  A$attribu |    000005DF  A$attribu |    000005DF  C$attribu
     000005E2  A$attribu |    000005E3  A$attribu |    000005E4  A$attribu
     000005E5  A$attribu |    000005E5  C$attribu |    000005E8  A$attribu
     000005EA  A$attribu |    000005EB  A$attribu |    000005ED  A$attribu
     000005ED  C$attribu |    000005F0  A$attribu |    000005F2  A$attribu
     000005F3  A$attribu |    000005F5  A$attribu |    000005F5  C$attribu
     000005F8  A$attribu |    000005FA  A$attribu |    000005FB  A$attribu
     000005FD  A$attribu |    000005FD  C$attribu |    00000600  A$attribu
     00000602  A$attribu |    00000603  A$attribu |    00000605  A$attribu
     00000605  C$attribu |    00000608  A$attribu |    0000060A  A$attribu
     0000060B  A$attribu |    0000060D  A$attribu |    0000060D  C$attribu
     00000610  A$attribu |    00000612  A$attribu |    00000613  A$attribu
     00000615  A$attribu |    00000615  C$attribu |    00000618  A$attribu
     0000061A  A$attribu |    0000061B  A$attribu |    0000061D  A$attribu
     0000061D  C$attribu |    00000620  A$attribu |    00000622  A$attribu
     00000623  A$attribu |    00000625  A$attribu |    00000625  C$attribu
     00000628  A$attribu |    0000062A  A$attribu |    0000062B  A$attribu
     0000062D  A$attribu |    0000062D  C$attribu |    00000630  A$attribu
     00000632  A$attribu |    00000633  A$attribu |    00000635  A$attribu
     00000635  C$attribu |    00000638  A$attribu |    0000063A  A$attribu
     0000063B  A$attribu |    0000063D  A$attribu |    0000063D  C$attribu
     00000640  A$attribu |    00000642  A$attribu |    00000643  A$attribu
     00000645  A$attribu |    00000645  C$attribu |    00000648  A$attribu
     0000064A  A$attribu |    0000064B  A$attribu |    0000064D  A$attribu
     0000064D  C$attribu |    00000650  A$attribu |    00000652  A$attribu
     00000653  A$attribu |    00000655  A$attribu |    00000655  C$attribu
     00000658  A$attribu |    0000065A  A$attribu |    0000065B  A$attribu
     0000065D  A$attribu |    0000065D  C$attribu |    00000660  A$attribu
     00000662  A$attribu |    00000663  A$attribu |    00000665  A$attribu
     00000665  C$attribu |    00000668  A$attribu |    0000066A  A$attribu
     0000066B  A$attribu |    0000066D  A$attribu |    0000066D  C$attribu
     00000670  A$attribu |    00000672  A$attribu |    00000673  A$attribu
     00000675  A$attribu |    00000675  C$attribu |    00000678  A$attribu
     0000067A  A$attribu |    0000067B  A$attribu |    0000067D  A$attribu
     0000067D  C$attribu |    00000680  A$attribu |    00000682  A$attribu
     00000683  A$attribu |    00000685  A$attribu |    00000685  C$attribu
     00000688  A$attribu |    0000068A  A$attribu |    0000068B  A$attribu
     0000068D  A$attribu |    0000068D  C$attribu |    00000690  A$attribu
     00000692  A$attribu |    00000692  C$attribu |    00000695  A$attribu
     00000697  A$attribu |    00000698  A$attribu |    0000069A  A$attribu
     0000069A  C$attribu |    0000069D  A$attribu |    0000069F  A$attribu
     000006A0  A$attribu |    000006A2  A$attribu |    000006A2  C$attribu
     000006A5  A$attribu |    000006A7  A$attribu |    000006A8  A$attribu
     000006AA  A$attribu |    000006AA  C$attribu |    000006AD  A$attribu
     000006AF  A$attribu |    000006B0  A$attribu |    000006B2  A$attribu
ASxxxx Linker V03.00/V05.40 + sdld,  page 8.
Hexadecimal  [32-Bits]

Area                       Addr        Size        Decimal Bytes (Attributes)
--------------------       ----        ----        ------- ----- ------------
_CODE                  00000200    000017CF =        6095. bytes (REL,CON)

        Value  Global            Value  Global            Value  Global    
        -----  ------            -----  ------            -----  ------    
     000006B2  C$attribu |    000006B5  A$attribu |    000006B7  A$attribu
     000006B8  A$attribu |    000006BA  A$attribu |    000006BA  C$attribu
     000006BD  A$attribu |    000006BF  A$attribu |    000006C0  A$attribu
     000006C2  A$attribu |    000006C2  C$attribu |    000006C5  A$attribu
     000006C6  A$attribu |    000006C7  A$attribu |    000006C8  A$attribu
     000006C8  C$attribu |    000006CB  A$attribu |    000006CD  A$attribu
     000006CE  A$attribu |    000006D0  A$attribu |    000006D0  C$attribu
     000006D3  A$attribu |    000006D5  A$attribu |    000006D6  A$attribu
     000006D8  A$attribu |    000006D8  C$attribu |    000006DB  A$attribu
     000006DD  A$attribu |    000006DE  A$attribu |    000006E0  A$attribu
     000006E0  C$attribu |    000006E3  A$attribu |    000006E5  A$attribu
     000006E6  A$attribu |    000006E8  A$attribu |    000006E8  C$attribu
     000006EB  A$attribu |    000006ED  A$attribu |    000006EE  A$attribu
     000006F0  A$attribu |    000006F0  C$attribu |    000006F3  A$attribu
     000006F5  A$attribu |    000006F6  A$attribu |    000006F8  A$attribu
     000006F8  C$attribu |    000006FB  A$attribu |    000006FD  A$attribu
     000006FE  A$attribu |    00000700  A$attribu |    00000700  C$attribu
     00000703  A$attribu |    00000705  A$attribu |    00000706  A$attribu
     00000708  A$attribu |    00000708  C$attribu |    0000070B  A$attribu
     0000070D  A$attribu |    0000070E  A$attribu |    00000710  A$attribu
     00000710  C$attribu |    00000713  A$attribu |    00000715  A$attribu
     00000716  A$attribu |    00000718  A$attribu |    00000718  C$attribu
     0000071B  A$attribu |    0000071D  A$attribu |    0000071E  A$attribu
     00000720  A$attribu |    00000720  C$attribu |    00000723  A$attribu
     00000725  A$attribu |    00000726  A$attribu |    00000728  A$attribu
     00000728  C$attribu |    0000072B  A$attribu |    0000072D  A$attribu
     0000072E  A$attribu |    00000730  A$attribu |    00000730  C$attribu
     00000733  A$attribu |    00000735  A$attribu |    00000736  A$attribu
     00000738  A$attribu |    00000738  C$attribu |    0000073B  A$attribu
     0000073D  A$attribu |    0000073E  A$attribu |    00000740  A$attribu
     00000740  C$attribu |    00000743  A$attribu |    00000745  A$attribu
     00000746  A$attribu |    00000748  A$attribu |    00000748  C$attribu
     0000074B  A$attribu |    0000074D  A$attribu |    0000074E  A$attribu
     00000750  A$attribu |    00000750  C$attribu |    00000753  A$attribu
     00000755  A$attribu |    00000756  A$attribu |    00000758  A$attribu
     00000758  C$attribu |    0000075B  A$attribu |    0000075C  A$attribu
     0000075D  A$attribu |    0000075D  C$attribu |    00000760  A$attribu
     00000762  A$attribu |    00000762  C$attribu |    00000763  A$attribu
     00000764  A$attribu |    00000765  A$attribu |    00000766  A$attribu
     00000767  A$attribu |    0000076A  A$attribu |    0000076B  A$attribu
     0000076C  A$attribu |    0000076D  A$attribu |    0000076D  C$attribu
     0000076D  XG$init_a |    0000076E  Fattribut |    00000774  Fattribut
     00000778  Fattribut |    00000784  Fattribut |    0000078F  Fattribut
     0000079B  Fattribut |    000007AA  Fattribut |    000007B8  Fattribut
     000007C7  Fattribut |    000007CC  Fattribut |    000007CF  Fattribut
     000007DA  Fattribut |    000007E4  Fattribut |    000007F0  Fattribut
     000007FB  Fattribut |    00000809  Fattribut |    00000817  Fattribut
     0000081E  Fattribut |    00000821  Fattribut |    0000082E  Fattribut
     00000839  Fattribut |    0000084A  Fattribut |    00000855  Fattribut
     00000866  Fattribut |    00000871  Fattribut |    0000087A  Fattribut
     0000087E  Fattribut |    00000889  Fattribut |    00000895  Fattribut
ASxxxx Linker V03.00/V05.40 + sdld,  page 9.
Hexadecimal  [32-Bits]

Area                       Addr        Size        Decimal Bytes (Attributes)
--------------------       ----        ----        ------- ----- ------------
_CODE                  00000200    000017CF =        6095. bytes (REL,CON)

        Value  Global            Value  Global            Value  Global    
        -----  ------            -----  ------            -----  ------    
     0000089F  Fattribut |    000008AC  Fattribut |    000008BB  Fattribut
     000008C6  Fattribut |    000008CF  Fattribut |    000008D1  Fattribut
     000008DB  Fattribut |    000008E5  Fattribut |    000008F4  Fattribut
     00000902  Fattribut |    00000910  Fattribut |    0000091C  Fattribut
     00000926  Fattribut |    00000929  Fattribut |    00000933  Fattribut
     0000093E  Fattribut |    00000947  Fattribut |    00000954  Fattribut
     00000960  Fattribut |    0000096E  A$gameloo |    0000096E  C$gameloo
     0000096E  C$gameloo |    0000096E  G$game_lo |    0000096E  _game_loo
     00000971  A$gameloo |    00000971  C$gameloo |    00000974  A$gameloo
     00000974  C$gameloo |    00000977  A$gameloo |    00000978  A$gameloo
     0000097A  A$gameloo |    0000097A  C$gameloo |    0000097D  A$gameloo
     0000097D  C$gameloo |    00000980  A$gameloo |    00000980  C$gameloo
     00000983  A$gameloo |    00000984  A$gameloo |    00000986  A$gameloo
     00000986  C$gameloo |    00000989  A$gameloo |    0000098B  A$gameloo
     0000098D  A$gameloo |    0000098E  A$gameloo |    0000098F  A$gameloo
     00000992  A$gameloo |    00000995  A$gameloo |    00000998  A$gameloo
     00000998  C$gameloo |    0000099B  A$gameloo |    0000099B  C$gameloo
     0000099E  A$gameloo |    0000099E  C$gameloo |    000009A1  A$gameloo
     000009A1  C$gameloo |    000009A4  A$gameloo |    000009A6  A$gameloo
     000009A6  C$gameloo |    000009A9  A$gameloo |    000009A9  C$gameloo
     000009AC  A$gameloo |    000009AC  C$gameloo |    000009AF  A$gameloo
     000009AF  C$gameloo |    000009B2  A$gameloo |    000009B2  C$gameloo
     000009B5  A$gameloo |    000009B5  C$gameloo |    000009B8  A$gameloo
     000009B8  C$gameloo |    000009BB  A$gameloo |    000009BB  C$gameloo
     000009BE  A$gameloo |    000009C1  A$gameloo |    000009C2  A$gameloo
     000009C4  A$gameloo |    000009C4  C$gameloo |    000009C7  A$gameloo
     000009C7  C$gameloo |    000009CA  A$gameloo |    000009CA  C$gameloo
     000009CD  A$gameloo |    000009CD  C$gameloo |    000009D0  A$gameloo
     000009D0  C$gameloo |    000009D3  A$gameloo |    000009D6  A$gameloo
     000009D6  C$gameloo |    000009D9  A$gameloo |    000009DC  A$gameloo
     000009DC  C$gameloo |    000009DF  A$gameloo |    000009E2  A$gameloo
     000009E3  A$gameloo |    000009E3  C$gameloo |    000009E3  C$gameloo
     000009E3  XG$game_l |    000009E6  A$general |    000009E6  C$general
     000009E6  C$general |    000009E6  G$init_fo |    000009E6  _init_fon
     000009E9  A$general |    000009E9  C$general |    000009EC  A$general
     000009ED  A$general |    000009F0  A$general |    000009F1  A$general
     000009F1  C$general |    000009F2  A$general |    000009F5  A$general
     000009F6  A$general |    000009F6  C$general |    000009F6  XG$init_f
     000009F7  A$general |    000009F7  C$general |    000009F7  C$general
     000009F7  G$init_sc |    000009F7  _init_scr |    000009F9  A$general
     000009FB  A$general |    000009FD  A$general |    000009FD  C$general
     000009FF  A$general |    00000A01  A$general |    00000A03  A$general
     00000A03  C$general |    00000A05  A$general |    00000A07  A$general
     00000A09  A$general |    00000A09  C$general |    00000A0B  A$general
     00000A0D  A$general |    00000A0F  A$general |    00000A0F  C$general
     00000A0F  XG$init_s |    00000A10  A$general |    00000A10  C$general
     00000A10  G$init_cl |    00000A10  _init_cle |    00000A13  A$general
     00000A14  A$general |    00000A15  A$general |    00000A15  C$general
     00000A17  A$general |    00000A18  A$general |    00000A19  A$general
     00000A1C  A$general |    00000A1D  A$general |    00000A1F  A$general
     00000A21  A$general |    00000A21  C$general |    00000A22  A$general
ASxxxx Linker V03.00/V05.40 + sdld,  page 10.
Hexadecimal  [32-Bits]

Area                       Addr        Size        Decimal Bytes (Attributes)
--------------------       ----        ----        ------- ----- ------------
_CODE                  00000200    000017CF =        6095. bytes (REL,CON)

        Value  Global            Value  Global            Value  Global    
        -----  ------            -----  ------            -----  ------    
     00000A23  A$general |    00000A24  A$general |    00000A25  A$general
     00000A26  A$general |    00000A27  A$general |    00000A28  A$general
     00000A28  C$general |    00000A29  A$general |    00000A2B  A$general
     00000A2B  C$general |    00000A2D  A$general |    00000A2F  A$general
     00000A2F  C$general |    00000A30  A$general |    00000A33  A$general
     00000A34  A$general |    00000A35  A$general |    00000A36  A$general
     00000A37  A$general |    00000A3A  A$general |    00000A3C  A$general
     00000A3C  C$general |    00000A3D  A$general |    00000A3F  A$general
     00000A3F  C$general |    00000A41  A$general |    00000A42  A$general
     00000A44  A$general |    00000A46  A$general |    00000A46  C$general
     00000A47  A$general |    00000A48  A$general |    00000A4B  A$general
     00000A4C  A$general |    00000A4E  A$general |    00000A4F  A$general
     00000A50  A$general |    00000A51  A$general |    00000A52  A$general
     00000A55  A$general |    00000A57  A$general |    00000A58  A$general
     00000A59  A$general |    00000A5C  A$general |    00000A5D  A$general
     00000A5F  A$general |    00000A60  A$general |    00000A61  A$general
     00000A62  A$general |    00000A63  A$general |    00000A66  A$general
     00000A68  A$general |    00000A69  A$general |    00000A6A  A$general
     00000A6A  C$general |    00000A6B  A$general |    00000A6D  A$general
     00000A6D  C$general |    00000A6E  A$general |    00000A71  A$general
     00000A72  A$general |    00000A75  A$general |    00000A77  A$general
     00000A77  C$general |    00000A79  A$general |    00000A7A  A$general
     00000A7C  A$general |    00000A7E  A$general |    00000A7F  A$general
     00000A81  A$general |    00000A82  A$general |    00000A83  A$general
     00000A84  A$general |    00000A85  A$general |    00000A88  A$general
     00000A89  A$general |    00000A8A  A$general |    00000A8C  A$general
     00000A8F  A$general |    00000A90  A$general |    00000A92  A$general
     00000A92  C$general |    00000A93  A$general |    00000A95  A$general
     00000A98  A$general |    00000A99  A$general |    00000A9A  A$general
     00000A9A  C$general |    00000A9A  XG$init_c |    00000A9B  A$general
     00000A9B  C$general |    00000A9B  C$general |    00000A9B  G$read_bu
     00000A9B  _read_but |    00000A9E  A$general |    00000AA1  A$general
     00000AA1  C$general |    00000AA1  XG$read_b |    00000AA2  A$general
     00000AA2  C$general |    00000AA2  C$general |    00000AA2  G$convert
     00000AA2  _convert_ |    00000AA3  A$general |    00000AA5  A$general
     00000AA7  A$general |    00000AA9  A$general |    00000AAA  A$general
     00000AAC  A$general |    00000AAD  A$general |    00000AAE  A$general
     00000AB0  A$general |    00000AB2  A$general |    00000AB4  A$general
     00000AB6  A$general |    00000AB7  A$general |    00000AB9  A$general
     00000ABB  A$general |    00000ABD  A$general |    00000ABE  A$general
     00000AC0  A$general |    00000AC1  A$general |    00000AC3  A$general
     00000AC4  A$general |    00000AC4  C$general |    00000AC5  A$general
     00000AC7  A$general |    00000AC9  A$general |    00000ACB  A$general
     00000ACC  A$general |    00000ACE  A$general |    00000ACF  A$general
     00000AD0  A$general |    00000AD2  A$general |    00000AD4  A$general
     00000AD6  A$general |    00000AD8  A$general |    00000AD9  A$general
     00000ADB  A$general |    00000ADD  A$general |    00000ADF  A$general
     00000AE0  A$general |    00000AE2  A$general |    00000AE3  A$general
     00000AE5  A$general |    00000AE6  A$general |    00000AE6  C$general
     00000AE7  A$general |    00000AE9  A$general |    00000AEB  A$general
     00000AED  A$general |    00000AEE  A$general |    00000AF0  A$general
ASxxxx Linker V03.00/V05.40 + sdld,  page 11.
Hexadecimal  [32-Bits]

Area                       Addr        Size        Decimal Bytes (Attributes)
--------------------       ----        ----        ------- ----- ------------
_CODE                  00000200    000017CF =        6095. bytes (REL,CON)

        Value  Global            Value  Global            Value  Global    
        -----  ------            -----  ------            -----  ------    
     00000AF1  A$general |    00000AF2  A$general |    00000AF4  A$general
     00000AF6  A$general |    00000AF8  A$general |    00000AFA  A$general
     00000AFB  A$general |    00000AFD  A$general |    00000AFF  A$general
     00000B01  A$general |    00000B02  A$general |    00000B04  A$general
     00000B05  A$general |    00000B07  A$general |    00000B08  A$general
     00000B08  C$general |    00000B09  A$general |    00000B0B  A$general
     00000B0D  A$general |    00000B0F  A$general |    00000B11  A$general
     00000B13  A$general |    00000B15  A$general |    00000B17  A$general
     00000B19  A$general |    00000B1B  A$general |    00000B1D  A$general
     00000B1F  A$general |    00000B21  A$general |    00000B23  A$general
     00000B25  A$general |    00000B27  A$general |    00000B29  A$general
     00000B2B  A$general |    00000B2D  A$general |    00000B2F  A$general
     00000B31  A$general |    00000B33  A$general |    00000B33  C$general
     00000B35  A$general |    00000B36  A$general |    00000B36  C$general
     00000B38  A$general |    00000B39  A$general |    00000B39  C$general
     00000B3B  A$general |    00000B3C  A$general |    00000B3C  C$general
     00000B3E  A$general |    00000B3F  A$general |    00000B3F  C$general
     00000B41  A$general |    00000B42  A$general |    00000B42  C$general
     00000B44  A$general |    00000B45  A$general |    00000B45  C$general
     00000B47  A$general |    00000B48  A$general |    00000B48  C$general
     00000B4A  A$general |    00000B4B  A$general |    00000B4B  C$general
     00000B4D  A$general |    00000B4E  A$general |    00000B4E  C$general
     00000B4F  A$general |    00000B50  A$general |    00000B50  C$general
     00000B51  A$general |    00000B51  C$general |    00000B51  C$general
     00000B51  XG$conver |    00000B52  A$general |    00000B52  C$general
     00000B52  G$draw_te |    00000B52  _draw_tex |    00000B54  A$general
     00000B56  A$general |    00000B57  A$general |    00000B58  A$general
     00000B58  C$general |    00000B5A  A$general |    00000B5B  A$general
     00000B5C  A$general |    00000B5D  A$general |    00000B5E  A$general
     00000B61  A$general |    00000B62  A$general |    00000B64  A$general
     00000B65  A$general |    00000B65  C$general |    00000B67  A$general
     00000B68  A$general |    00000B69  A$general |    00000B6A  A$general
     00000B6B  A$general |    00000B6E  A$general |    00000B6F  A$general
     00000B71  A$general |    00000B72  A$general |    00000B73  A$general
     00000B74  A$general |    00000B74  C$general |    00000B76  A$general
     00000B77  A$general |    00000B79  A$general |    00000B7A  A$general
     00000B7C  A$general |    00000B7C  C$general |    00000B7E  A$general
     00000B7F  A$general |    00000B81  A$general |    00000B82  A$general
     00000B82  C$general |    00000B84  A$general |    00000B85  A$general
     00000B87  A$general |    00000B88  A$general |    00000B89  A$general
     00000B8A  A$general |    00000B8B  A$general |    00000B8C  A$general
     00000B8E  A$general |    00000B8F  A$general |    00000B91  A$general
     00000B93  A$general |    00000B94  A$general |    00000B95  A$general
     00000B96  A$general |    00000B98  A$general |    00000B99  A$general
     00000B9A  A$general |    00000B9B  A$general |    00000B9C  A$general
     00000B9D  A$general |    00000B9E  A$general |    00000B9F  A$general
     00000BA0  A$general |    00000BA2  A$general |    00000BA3  A$general
     00000BA4  A$general |    00000BA4  C$general |    00000BA6  A$general
     00000BA7  A$general |    00000BA8  A$general |    00000BAA  A$general
     00000BAA  C$general |    00000BAC  A$general |    00000BAD  A$general
     00000BAE  A$general |    00000BAF  A$general |    00000BB1  A$general
ASxxxx Linker V03.00/V05.40 + sdld,  page 12.
Hexadecimal  [32-Bits]

Area                       Addr        Size        Decimal Bytes (Attributes)
--------------------       ----        ----        ------- ----- ------------
_CODE                  00000200    000017CF =        6095. bytes (REL,CON)

        Value  Global            Value  Global            Value  Global    
        -----  ------            -----  ------            -----  ------    
     00000BB2  A$general |    00000BB3  A$general |    00000BB4  A$general
     00000BB5  A$general |    00000BB6  A$general |    00000BB7  A$general
     00000BB9  A$general |    00000BBA  A$general |    00000BBB  A$general
     00000BBC  A$general |    00000BBE  A$general |    00000BBF  A$general
     00000BBF  C$general |    00000BC1  A$general |    00000BC2  A$general
     00000BC4  A$general |    00000BC5  A$general |    00000BC7  A$general
     00000BC8  A$general |    00000BC9  A$general |    00000BC9  C$general
     00000BCB  A$general |    00000BCC  A$general |    00000BCD  A$general
     00000BD0  A$general |    00000BD0  C$general |    00000BD2  A$general
     00000BD3  A$general |    00000BD5  A$general |    00000BD6  A$general
     00000BD8  A$general |    00000BD9  A$general |    00000BDB  A$general
     00000BDC  A$general |    00000BDE  A$general |    00000BE0  A$general
     00000BE2  A$general |    00000BE3  A$general |    00000BE5  A$general
     00000BE6  A$general |    00000BE8  A$general |    00000BEA  A$general
     00000BEB  A$general |    00000BEC  A$general |    00000BEE  A$general
     00000BEF  A$general |    00000BF0  A$general |    00000BF1  A$general
     00000BF2  A$general |    00000BF3  A$general |    00000BF4  A$general
     00000BF5  A$general |    00000BF6  A$general |    00000BF7  A$general
     00000BF9  A$general |    00000BFB  A$general |    00000BFD  A$general
     00000BFF  A$general |    00000C00  A$general |    00000C02  A$general
     00000C04  A$general |    00000C06  A$general |    00000C07  A$general
     00000C09  A$general |    00000C09  C$general |    00000C0B  A$general
     00000C0C  A$general |    00000C0E  A$general |    00000C0F  A$general
     00000C11  A$general |    00000C12  A$general |    00000C13  A$general
     00000C14  A$general |    00000C16  A$general |    00000C17  A$general
     00000C18  A$general |    00000C19  A$general |    00000C1A  A$general
     00000C1B  A$general |    00000C1E  A$general |    00000C20  A$general
     00000C20  C$general |    00000C22  A$general |    00000C25  A$general
     00000C27  A$general |    00000C28  A$general |    00000C2A  A$general
     00000C2B  A$general |    00000C2C  A$general |    00000C2D  A$general
     00000C2F  A$general |    00000C30  A$general |    00000C31  A$general
     00000C32  A$general |    00000C33  A$general |    00000C34  A$general
     00000C35  A$general |    00000C36  A$general |    00000C37  A$general
     00000C38  A$general |    00000C39  A$general |    00000C3B  A$general
     00000C3C  A$general |    00000C3E  A$general |    00000C3F  A$general
     00000C40  A$general |    00000C41  A$general |    00000C43  A$general
     00000C44  A$general |    00000C46  A$general |    00000C47  A$general
     00000C48  A$general |    00000C49  A$general |    00000C4B  A$general
     00000C4C  A$general |    00000C4F  A$general |    00000C4F  C$general
     00000C51  A$general |    00000C52  A$general |    00000C54  A$general
     00000C54  C$general |    00000C56  A$general |    00000C57  A$general
     00000C59  A$general |    00000C5A  A$general |    00000C5C  A$general
     00000C5D  A$general |    00000C5F  A$general |    00000C60  A$general
     00000C62  A$general |    00000C63  A$general |    00000C65  A$general
     00000C66  A$general |    00000C68  A$general |    00000C68  C$general
     00000C6A  A$general |    00000C6B  A$general |    00000C6C  A$general
     00000C6E  A$general |    00000C6F  A$general |    00000C70  A$general
     00000C71  A$general |    00000C73  A$general |    00000C74  A$general
     00000C75  A$general |    00000C76  A$general |    00000C77  A$general
     00000C78  A$general |    00000C7B  A$general |    00000C7D  A$general
     00000C7D  C$general |    00000C7F  A$general |    00000C80  A$general
ASxxxx Linker V03.00/V05.40 + sdld,  page 13.
Hexadecimal  [32-Bits]

Area                       Addr        Size        Decimal Bytes (Attributes)
--------------------       ----        ----        ------- ----- ------------
_CODE                  00000200    000017CF =        6095. bytes (REL,CON)

        Value  Global            Value  Global            Value  Global    
        -----  ------            -----  ------            -----  ------    
     00000C81  A$general |    00000C82  A$general |    00000C83  A$general
     00000C85  A$general |    00000C86  A$general |    00000C87  A$general
     00000C88  A$general |    00000C89  A$general |    00000C8A  A$general
     00000C8B  A$general |    00000C8C  A$general |    00000C8F  A$general
     00000C90  A$general |    00000C91  A$general |    00000C93  A$general
     00000C94  A$general |    00000C95  A$general |    00000C96  A$general
     00000C97  A$general |    00000C98  A$general |    00000C9A  A$general
     00000C9B  A$general |    00000C9C  A$general |    00000C9D  A$general
     00000C9E  A$general |    00000CA1  A$general |    00000CA1  C$general
     00000CA2  A$general |    00000CA4  A$general |    00000CA4  C$general
     00000CA6  A$general |    00000CA7  A$general |    00000CA8  A$general
     00000CAA  A$general |    00000CAA  C$general |    00000CAC  A$general
     00000CAD  A$general |    00000CAF  A$general |    00000CB0  A$general
     00000CB2  A$general |    00000CB3  A$general |    00000CB5  A$general
     00000CB6  A$general |    00000CB8  A$general |    00000CB9  A$general
     00000CBB  A$general |    00000CBC  A$general |    00000CBE  A$general
     00000CBF  A$general |    00000CC1  A$general |    00000CC2  A$general
     00000CC4  A$general |    00000CC4  C$general |    00000CC6  A$general
     00000CC7  A$general |    00000CC8  A$general |    00000CCA  A$general
     00000CCB  A$general |    00000CCC  A$general |    00000CCD  A$general
     00000CCF  A$general |    00000CD0  A$general |    00000CD1  A$general
     00000CD2  A$general |    00000CD3  A$general |    00000CD4  A$general
     00000CD7  A$general |    00000CD9  A$general |    00000CD9  C$general
     00000CDB  A$general |    00000CDE  A$general |    00000CDF  A$general
     00000CE1  A$general |    00000CE2  A$general |    00000CE4  A$general
     00000CE5  A$general |    00000CE7  A$general |    00000CE8  A$general
     00000CEA  A$general |    00000CEB  A$general |    00000CED  A$general
     00000CEE  A$general |    00000CF0  A$general |    00000CF1  A$general
     00000CF2  A$general |    00000CF3  A$general |    00000CF5  A$general
     00000CF6  A$general |    00000CF7  A$general |    00000CF8  A$general
     00000CFB  A$general |    00000CFB  C$general |    00000CFD  A$general
     00000CFE  A$general |    00000D00  A$general |    00000D00  C$general
     00000D02  A$general |    00000D03  A$general |    00000D05  A$general
     00000D06  A$general |    00000D06  C$general |    00000D06  G$draw_nu
     00000D06  _draw_num |    00000D08  A$general |    00000D09  A$general
     00000D0B  A$general |    00000D0C  A$general |    00000D0C  C$general
     00000D0D  A$general |    00000D0F  A$general |    00000D10  A$general
     00000D11  A$general |    00000D12  A$general |    00000D13  A$general
     00000D16  A$general |    00000D17  A$general |    00000D1A  A$general
     00000D1B  A$general |    00000D1C  A$general |    00000D1F  A$general
     00000D21  A$general |    00000D22  A$general |    00000D22  C$general
     00000D25  A$general |    00000D26  A$general |    00000D27  A$general
     00000D2A  A$general |    00000D2B  A$general |    00000D2C  A$general
     00000D2C  C$general |    00000D2D  A$general |    00000D2F  A$general
     00000D30  A$general |    00000D32  A$general |    00000D34  A$general
     00000D35  A$general |    00000D35  C$general |    00000D37  A$general
     00000D38  A$general |    00000D39  A$general |    00000D3A  A$general
     00000D3B  A$general |    00000D3C  A$general |    00000D3D  A$general
     00000D3E  A$general |    00000D41  A$general |    00000D42  A$general
     00000D43  A$general |    00000D44  A$general |    00000D46  A$general
     00000D47  A$general |    00000D47  C$general |    00000D49  A$general
ASxxxx Linker V03.00/V05.40 + sdld,  page 14.
Hexadecimal  [32-Bits]

Area                       Addr        Size        Decimal Bytes (Attributes)
--------------------       ----        ----        ------- ----- ------------
_CODE                  00000200    000017CF =        6095. bytes (REL,CON)

        Value  Global            Value  Global            Value  Global    
        -----  ------            -----  ------            -----  ------    
     00000D4B  A$general |    00000D4D  A$general |    00000D4E  A$general
     00000D50  A$general |    00000D51  A$general |    00000D52  A$general
     00000D53  A$general |    00000D54  A$general |    00000D55  A$general
     00000D56  A$general |    00000D57  A$general |    00000D58  A$general
     00000D59  A$general |    00000D5A  A$general |    00000D5B  A$general
     00000D5C  A$general |    00000D5D  A$general |    00000D5E  A$general
     00000D5F  A$general |    00000D60  A$general |    00000D61  A$general
     00000D62  A$general |    00000D63  A$general |    00000D64  A$general
     00000D65  A$general |    00000D67  A$general |    00000D68  A$general
     00000D69  A$general |    00000D6B  A$general |    00000D6C  A$general
     00000D6E  A$general |    00000D6F  A$general |    00000D71  A$general
     00000D73  A$general |    00000D74  A$general |    00000D75  A$general
     00000D77  A$general |    00000D78  A$general |    00000D79  A$general
     00000D7A  A$general |    00000D7B  A$general |    00000D7C  A$general
     00000D7D  A$general |    00000D7E  A$general |    00000D7F  A$general
     00000D80  A$general |    00000D82  A$general |    00000D84  A$general
     00000D86  A$general |    00000D88  A$general |    00000D89  A$general
     00000D8B  A$general |    00000D8D  A$general |    00000D8F  A$general
     00000D90  A$general |    00000D92  A$general |    00000D94  A$general
     00000D95  A$general |    00000D97  A$general |    00000D98  A$general
     00000D99  A$general |    00000D9A  A$general |    00000D9C  A$general
     00000D9D  A$general |    00000D9E  A$general |    00000D9F  A$general
     00000DA0  A$general |    00000DA3  A$general |    00000DA4  A$general
     00000DA5  A$general |    00000DA6  A$general |    00000DA7  A$general
     00000DA9  A$general |    00000DA9  C$general |    00000DAA  A$general
     00000DAB  A$general |    00000DAD  A$general |    00000DAE  A$general
     00000DB0  A$general |    00000DB1  A$general |    00000DB4  A$general
     00000DB5  A$general |    00000DB6  A$general |    00000DB7  A$general
     00000DB8  A$general |    00000DBA  A$general |    00000DBB  A$general
     00000DBD  A$general |    00000DBE  A$general |    00000DBF  A$general
     00000DC0  A$general |    00000DC3  A$general |    00000DC4  A$general
     00000DC5  A$general |    00000DC6  A$general |    00000DC8  A$general
     00000DC9  A$general |    00000DCA  A$general |    00000DCB  A$general
     00000DCB  C$general |    00000DCC  A$general |    00000DCD  A$general
     00000DCE  A$general |    00000DCF  A$general |    00000DD2  A$general
     00000DD2  C$general |    00000DD4  A$general |    00000DD6  A$general
     00000DD8  A$general |    00000DD9  A$general |    00000DDA  A$general
     00000DDC  A$general |    00000DDC  C$general |    00000DDD  A$general
     00000DE0  A$general |    00000DE1  A$general |    00000DE2  A$general
     00000DE3  A$general |    00000DE4  A$general |    00000DE6  A$general
     00000DE7  A$general |    00000DE9  A$general |    00000DEA  A$general
     00000DEB  A$general |    00000DEC  A$general |    00000DED  A$general
     00000DEF  A$general |    00000DF0  A$general |    00000DF0  C$general
     00000DF2  A$general |    00000DF3  A$general |    00000DF4  A$general
     00000DF5  A$general |    00000DF6  A$general |    00000DF8  A$general
     00000DF9  A$general |    00000DFA  A$general |    00000DFB  A$general
     00000DFB  C$general |    00000DFD  A$general |    00000DFE  A$general
     00000DFF  A$general |    00000E00  A$general |    00000E01  A$general
     00000E02  A$general |    00000E05  A$general |    00000E06  A$general
     00000E07  A$general |    00000E09  A$general |    00000E0A  A$general
     00000E0B  A$general |    00000E0C  A$general |    00000E0D  A$general
ASxxxx Linker V03.00/V05.40 + sdld,  page 15.
Hexadecimal  [32-Bits]

Area                       Addr        Size        Decimal Bytes (Attributes)
--------------------       ----        ----        ------- ----- ------------
_CODE                  00000200    000017CF =        6095. bytes (REL,CON)

        Value  Global            Value  Global            Value  Global    
        -----  ------            -----  ------            -----  ------    
     00000E0E  A$general |    00000E11  A$general |    00000E13  A$general
     00000E14  A$general |    00000E16  A$general |    00000E17  A$general
     00000E18  A$general |    00000E19  A$general |    00000E1A  A$general
     00000E1D  A$general |    00000E1E  A$general |    00000E1F  A$general
     00000E20  A$general |    00000E20  C$general |    00000E21  A$general
     00000E22  A$general |    00000E24  A$general |    00000E25  A$general
     00000E27  A$general |    00000E28  A$general |    00000E2B  A$general
     00000E2C  A$general |    00000E2D  A$general |    00000E2E  A$general
     00000E30  A$general |    00000E31  A$general |    00000E32  A$general
     00000E33  A$general |    00000E36  A$general |    00000E37  A$general
     00000E38  A$general |    00000E39  A$general |    00000E3B  A$general
     00000E3B  C$general |    00000E3C  A$general |    00000E3D  A$general
     00000E3E  A$general |    00000E3F  A$general |    00000E40  A$general
     00000E41  A$general |    00000E43  A$general |    00000E43  C$general
     00000E45  A$general |    00000E46  A$general |    00000E48  A$general
     00000E49  Fgeneral$ |    00000E4C  A$interru |    00000E4C  C$interru
     00000E4C  G$interru |    00000E4C  _interrup |    00000E4E  A$interru
     00000E50  A$interru |    00000E51  A$interru |    00000E53  A$interru
     00000E53  C$interru |    00000E53  C$interru |    00000E53  XG$interr
     00000E54  A$interru |    00000E54  C$interru |    00000E54  G$interru
     00000E54  _interrup |    00000E56  A$interru |    00000E58  A$interru
     00000E59  A$interru |    00000E5B  A$interru |    00000E5B  C$interru
     00000E5B  C$interru |    00000E5B  XG$interr |    00000E5C  A$interru
     00000E5C  C$interru |    00000E5C  C$interru |    00000E5C  G$interru
     00000E5C  _interrup |    00000E5F  A$interru |    00000E60  A$interru
     00000E61  A$interru |    00000E61  C$interru |    00000E62  A$interru
     00000E64  A$interru |    00000E65  A$interru |    00000E67  A$interru
     00000E67  C$interru |    00000E67  XG$interr |    00000E68  A$interru
     00000E68  C$interru |    00000E68  C$interru |    00000E68  G$init_fr
     00000E68  _init_fra |    00000E6B  A$interru |    00000E6E  A$interru
     00000E6F  A$interru |    00000E6F  C$interru |    00000E6F  C$interru
     00000E6F  XG$init_f |    00000E70  A$interru |    00000E70  C$interru
     00000E70  C$interru |    00000E70  G$init_en |    00000E70  _init_ena
     00000E72  A$interru |    00000E74  A$interru |    00000E74  C$interru
     00000E76  A$interru |    00000E78  A$interru |    00000E79  A$interru
     00000E79  C$interru |    00000E7C  A$interru |    00000E7F  A$interru
     00000E7F  C$interru |    00000E82  A$interru |    00000E85  A$interru
     00000E86  A$interru |    00000E86  C$interru |    00000E88  A$interru
     00000E88  C$interru |    00000E88  XG$init_e |    00000E8B  A$interru
     00000E8B  C$interru |    00000E8B  G$init_di |    00000E8B  _init_dis
     00000E8C  A$interru |    00000E8C  C$interru |    00000E8F  A$interru
     00000E92  A$interru |    00000E92  C$interru |    00000E95  A$interru
     00000E98  A$interru |    00000E98  C$interru |    00000E9A  A$interru
     00000E9C  A$interru |    00000E9D  A$interru |    00000E9D  C$interru
     00000E9F  A$interru |    00000E9F  C$interru |    00000E9F  XG$init_d
     00000EA2  A$invento |    00000EA2  C$invento |    00000EA2  C$invento
     00000EA2  G$update_ |    00000EA2  _update_i |    00000EA5  A$invento
     00000EA8  A$invento |    00000EA9  A$invento |    00000EAB  A$invento
     00000EAC  A$invento |    00000EAD  A$invento |    00000EAE  A$invento
     00000EAF  A$invento |    00000EB0  A$invento |    00000EB1  A$invento
     00000EB2  A$invento |    00000EB5  A$invento |    00000EB6  A$invento
ASxxxx Linker V03.00/V05.40 + sdld,  page 16.
Hexadecimal  [32-Bits]

Area                       Addr        Size        Decimal Bytes (Attributes)
--------------------       ----        ----        ------- ----- ------------
_CODE                  00000200    000017CF =        6095. bytes (REL,CON)

        Value  Global            Value  Global            Value  Global    
        -----  ------            -----  ------            -----  ------    
     00000EB8  A$invento |    00000EB9  A$invento |    00000EBA  A$invento
     00000EBA  C$invento |    00000EBB  A$invento |    00000EBD  A$invento
     00000EBF  A$invento |    00000EC1  A$invento |    00000EC2  A$invento
     00000EC4  A$invento |    00000EC4  C$invento |    00000EC6  A$invento
     00000EC7  A$invento |    00000EC8  A$invento |    00000EC9  A$invento
     00000ECA  A$invento |    00000ECB  A$invento |    00000ECC  A$invento
     00000ECF  A$invento |    00000ED0  A$invento |    00000ED3  A$invento
     00000ED4  A$invento |    00000ED5  A$invento |    00000ED5  C$invento
     00000ED6  A$invento |    00000ED8  A$invento |    00000EDA  A$invento
     00000EDA  C$invento |    00000EDD  A$invento |    00000EDE  A$invento
     00000EDF  A$invento |    00000EE0  A$invento |    00000EE3  A$invento
     00000EE4  A$invento |    00000EE5  A$invento |    00000EE6  A$invento
     00000EE9  A$invento |    00000EEA  A$invento |    00000EEB  A$invento
     00000EEC  A$invento |    00000EED  A$invento |    00000EED  C$invento
     00000EEE  A$invento |    00000EF0  A$invento |    00000EF2  A$invento
     00000EF2  C$invento |    00000EF5  A$invento |    00000EF6  A$invento
     00000EF7  A$invento |    00000EF8  A$invento |    00000EFB  A$invento
     00000EFC  A$invento |    00000EFD  A$invento |    00000EFE  A$invento
     00000F01  A$invento |    00000F02  A$invento |    00000F03  A$invento
     00000F04  A$invento |    00000F05  A$invento |    00000F05  C$invento
     00000F06  A$invento |    00000F08  A$invento |    00000F09  A$invento
     00000F09  C$invento |    00000F0C  A$invento |    00000F0D  A$invento
     00000F0E  A$invento |    00000F0F  A$invento |    00000F12  A$invento
     00000F13  A$invento |    00000F14  A$invento |    00000F15  A$invento
     00000F18  A$invento |    00000F19  A$invento |    00000F1A  A$invento
     00000F1B  A$invento |    00000F1B  C$invento |    00000F1B  XG$update
     00000F1C  A$invento |    00000F1C  C$invento |    00000F1C  G$calcula
     00000F1C  _calculat |    00000F1D  A$invento |    00000F1E  A$invento
     00000F1E  C$invento |    00000F21  A$invento |    00000F21  C$invento
     00000F23  A$invento |    00000F25  A$invento |    00000F26  A$invento
     00000F27  A$invento |    00000F28  A$invento |    00000F2A  A$invento
     00000F2C  A$invento |    00000F2D  A$invento |    00000F2E  A$invento
     00000F30  A$invento |    00000F31  A$invento |    00000F33  A$invento
     00000F34  A$invento |    00000F35  A$invento |    00000F37  A$invento
     00000F39  A$invento |    00000F3B  A$invento |    00000F3D  A$invento
     00000F3E  A$invento |    00000F40  A$invento |    00000F42  A$invento
     00000F44  A$invento |    00000F45  A$invento |    00000F47  A$invento
     00000F47  C$invento |    00000F48  A$invento |    00000F49  A$invento
     00000F4A  A$invento |    00000F4B  A$invento |    00000F4C  A$invento
     00000F4D  A$invento |    00000F4E  A$invento |    00000F4F  A$invento
     00000F50  A$invento |    00000F52  A$invento |    00000F53  A$invento
     00000F54  A$invento |    00000F56  A$invento |    00000F57  A$invento
     00000F5A  A$invento |    00000F5B  A$invento |    00000F5C  A$invento
     00000F5D  A$invento |    00000F5E  A$invento |    00000F5F  A$invento
     00000F60  A$invento |    00000F61  A$invento |    00000F62  A$invento
     00000F63  A$invento |    00000F64  A$invento |    00000F67  A$invento
     00000F68  A$invento |    00000F69  A$invento |    00000F6A  A$invento
     00000F6B  A$invento |    00000F6C  A$invento |    00000F6D  A$invento
     00000F6D  C$invento |    00000F6F  A$invento |    00000F70  A$invento
     00000F72  A$invento |    00000F73  A$invento |    00000F74  A$invento
     00000F76  A$invento |    00000F76  C$invento |    00000F79  A$invento
ASxxxx Linker V03.00/V05.40 + sdld,  page 17.
Hexadecimal  [32-Bits]

Area                       Addr        Size        Decimal Bytes (Attributes)
--------------------       ----        ----        ------- ----- ------------
_CODE                  00000200    000017CF =        6095. bytes (REL,CON)

        Value  Global            Value  Global            Value  Global    
        -----  ------            -----  ------            -----  ------    
     00000F7A  A$invento |    00000F7B  A$invento |    00000F7C  A$invento
     00000F7D  A$invento |    00000F7E  A$invento |    00000F7E  C$invento
     00000F7E  XG$calcul |    00000F7F  A$invento |    00000F7F  C$invento
     00000F7F  G$sell_al |    00000F7F  _sell_all |    00000F81  A$invento
     00000F81  C$invento |    00000F82  A$invento |    00000F84  A$invento
     00000F85  A$invento |    00000F85  C$invento |    00000F86  A$invento
     00000F88  A$invento |    00000F89  A$invento |    00000F8A  A$invento
     00000F8B  A$invento |    00000F8D  A$invento |    00000F8F  A$invento
     00000F90  A$invento |    00000F91  A$invento |    00000F93  A$invento
     00000F94  A$invento |    00000F96  A$invento |    00000F97  A$invento
     00000F99  A$invento |    00000F9B  A$invento |    00000F9D  A$invento
     00000F9F  A$invento |    00000FA0  A$invento |    00000FA2  A$invento
     00000FA4  A$invento |    00000FA6  A$invento |    00000FA7  A$invento
     00000FA9  A$invento |    00000FA9  C$invento |    00000FAB  A$invento
     00000FAC  A$invento |    00000FAD  A$invento |    00000FAE  A$invento
     00000FAF  A$invento |    00000FB0  A$invento |    00000FB1  A$invento
     00000FB2  A$invento |    00000FB3  A$invento |    00000FB4  A$invento
     00000FB7  A$invento |    00000FB8  A$invento |    00000FB9  A$invento
     00000FBA  A$invento |    00000FBD  A$invento |    00000FBE  A$invento
     00000FBF  A$invento |    00000FC2  A$invento |    00000FC3  A$invento
     00000FC4  A$invento |    00000FC5  A$invento |    00000FC6  A$invento
     00000FC7  A$invento |    00000FC9  A$invento |    00000FCA  A$invento
     00000FCB  A$invento |    00000FCE  A$invento |    00000FD0  A$invento
     00000FD1  A$invento |    00000FD2  A$invento |    00000FD2  C$invento
     00000FD3  A$invento |    00000FD4  A$invento |    00000FD5  A$invento
     00000FD6  A$invento |    00000FD7  A$invento |    00000FD8  A$invento
     00000FD9  A$invento |    00000FDA  A$invento |    00000FDB  A$invento
     00000FDC  A$invento |    00000FDE  A$invento |    00000FDF  A$invento
     00000FE0  A$invento |    00000FE2  A$invento |    00000FE2  C$invento
     00000FE5  A$invento |    00000FE6  A$invento |    00000FE7  A$invento
     00000FE8  A$invento |    00000FE9  A$invento |    00000FEA  A$invento
     00000FEB  A$invento |    00000FEC  A$invento |    00000FED  A$invento
     00000FF0  A$invento |    00000FF1  A$invento |    00000FF2  A$invento
     00000FF3  A$invento |    00000FF3  C$invento |    00000FF6  A$invento
     00000FF7  A$invento |    00000FF9  A$invento |    00000FFB  A$invento
     00000FFC  A$invento |    00000FFE  A$invento |    00000FFF  A$invento
     00001001  A$invento |    00001003  A$invento |    00001005  A$invento
     00001007  A$invento |    00001008  A$invento |    0000100A  A$invento
     0000100C  A$invento |    0000100E  A$invento |    0000100F  A$invento
     00001011  A$invento |    00001011  C$invento |    00001012  A$invento
     00001013  A$invento |    00001014  A$invento |    00001015  A$invento
     00001016  A$invento |    00001017  A$invento |    0000101A  A$invento
     0000101B  A$invento |    0000101E  A$invento |    0000101F  A$invento
     00001021  A$invento |    00001021  C$invento |    00001022  A$invento
     00001024  A$invento |    00001024  C$invento |    00001027  A$invento
     00001029  A$invento |    0000102B  A$invento |    0000102B  C$invento
     0000102B  XG$sell_a |    0000102C  Finventor |    00001032  Finventor
     00001037  Finventor |    0000103D  Finventor |    00001043  Finventor
     00001048  Finventor |    0000104D  Finventor |    00001054  Finventor
     00001058  Finventor |    0000105F  Finventor |    00001064  Finventor
     0000106C  Finventor |    00001075  Finventor |    0000107E  Finventor
ASxxxx Linker V03.00/V05.40 + sdld,  page 18.
Hexadecimal  [32-Bits]

Area                       Addr        Size        Decimal Bytes (Attributes)
--------------------       ----        ----        ------- ----- ------------
_CODE                  00000200    000017CF =        6095. bytes (REL,CON)

        Value  Global            Value  Global            Value  Global    
        -----  ------            -----  ------            -----  ------    
     00001087  Finventor |    00001092  Finventor |    0000109D  Finventor
     000010A5  Finventor |    000010AA  Finventor |    000010B2  Finventor
     000010B7  Finventor |    000010BB  Finventor |    000010C1  Finventor
     000010CA  Finventor |    000010D3  A$main$79 |    000010D3  C$main.c$
     000010D3  C$main.c$ |    000010D3  G$main$0$ |    000010D3  _main    
     000010D6  A$main$83 |    000010D6  C$main.c$ |    000010D8  A$main$84
     000010DA  A$main$85 |    000010DB  A$main$86 |    000010DC  A$main$87
     000010DF  A$main$88 |    000010E0  A$main$92 |    000010E0  C$main.c$
     000010E3  A$main$96 |    000010E3  C$main.c$ |    000010E6  A$main$10
     000010E6  C$main.c$ |    000010E9  A$main$10 |    000010E9  C$main.c$
     000010EC  A$main$10 |    000010EC  C$main.c$ |    000010EF  A$main$11
     000010EF  C$main.c$ |    000010F1  A$main$12 |    000010F1  C$main.c$
     000010F1  C$main.c$ |    000010F4  A$main$12 |    000010F5  A$main$12
     000010F8  A$main$12 |    000010FB  A$main$12 |    000010FD  A$main$12
     00001100  A$main$12 |    00001103  A$main$12 |    00001105  A$main$12
     00001107  A$main$12 |    0000110A  A$main$13 |    0000110C  A$main$13
     0000110F  A$main$13 |    00001111  A$main$14 |    00001111  C$main.c$
     00001111  C$main.c$ |    00001113  A$main$14 |    00001115  A$main$14
     00001118  A$main$14 |    0000111A  A$main$14 |    0000111A  C$main.c$
     0000111D  A$main$15 |    0000111D  C$main.c$ |    00001120  A$main$15
     00001120  C$main.c$ |    00001123  A$main$15 |    00001123  C$main.c$
     00001126  A$main$16 |    00001126  C$main.c$ |    00001129  A$main$16
     00001129  C$main.c$ |    0000112C  A$main$17 |    0000112C  C$main.c$
     0000112F  A$main$17 |    0000112F  C$main.c$ |    00001132  A$main$17
     00001132  C$main.c$ |    00001135  A$main$18 |    00001135  C$main.c$
     00001138  A$main$18 |    00001138  C$main.c$ |    0000113B  A$main$19
     0000113B  C$main.c$ |    0000113E  A$main$19 |    0000113F  A$main$19
     00001140  A$main$19 |    00001141  A$main$19 |    00001142  A$main$19
     00001145  A$main$19 |    00001147  A$main$20 |    00001147  C$main.c$
     0000114A  A$main$20 |    0000114B  A$main$20 |    0000114E  A$main$20
     0000114F  A$main$20 |    00001152  A$main$20 |    00001154  A$main$21
     00001154  C$main.c$ |    00001157  A$main$21 |    00001158  A$main$21
     0000115B  A$main$21 |    0000115C  A$main$21 |    0000115F  A$main$21
     00001161  A$main$21 |    00001161  C$main.c$ |    00001164  A$main$22
     00001165  A$main$22 |    00001168  A$main$22 |    00001169  A$main$22
     0000116C  A$main$22 |    0000116E  A$main$22 |    0000116E  C$main.c$
     00001171  A$main$22 |    00001172  A$main$23 |    00001175  A$main$23
     00001176  A$main$23 |    00001179  A$main$23 |    0000117B  A$main$23
     0000117B  C$main.c$ |    0000117E  A$main$23 |    0000117F  A$main$23
     00001182  A$main$24 |    00001183  A$main$24 |    00001186  A$main$24
     00001188  A$main$24 |    00001188  C$main.c$ |    0000118B  A$main$24
     0000118C  A$main$24 |    0000118F  A$main$24 |    00001190  A$main$25
     00001193  A$main$25 |    00001195  A$main$25 |    00001195  C$main.c$
     00001198  A$main$25 |    00001199  A$main$25 |    0000119C  A$main$25
     0000119D  A$main$25 |    000011A0  A$main$26 |    000011A2  A$main$26
     000011A2  C$main.c$ |    000011A5  A$main$26 |    000011A6  A$main$26
     000011A9  A$main$26 |    000011AC  A$main$26 |    000011AE  A$main$27
     000011B1  A$main$27 |    000011B1  C$main.c$ |    000011B4  A$main$27
     000011B6  A$main$28 |    000011B6  C$main.c$ |    000011B6  C$main.c$
     000011B8  A$main$28 |    000011BA  A$main$28 |    000011BD  A$main$28
     000011BF  A$main$29 |    000011BF  C$main.c$ |    000011C2  A$main$29
ASxxxx Linker V03.00/V05.40 + sdld,  page 19.
Hexadecimal  [32-Bits]

Area                       Addr        Size        Decimal Bytes (Attributes)
--------------------       ----        ----        ------- ----- ------------
_CODE                  00000200    000017CF =        6095. bytes (REL,CON)

        Value  Global            Value  Global            Value  Global    
        -----  ------            -----  ------            -----  ------    
     000011C2  C$main.c$ |    000011C5  A$main$29 |    000011C5  C$main.c$
     000011C8  A$main$30 |    000011C8  C$main.c$ |    000011CB  A$main$30
     000011CB  C$main.c$ |    000011CE  A$main$30 |    000011CF  A$main$30
     000011D2  A$main$31 |    000011D2  C$main.c$ |    000011D5  A$main$31
     000011D7  A$main$32 |    000011D7  C$main.c$ |    000011D7  C$main.c$
     000011DA  A$main$32 |    000011DA  C$main.c$ |    000011DD  A$main$33
     000011DD  C$main.c$ |    000011E0  A$main$33 |    000011E0  C$main.c$
     000011E0  C$main.c$ |    000011E3  A$main$34 |    000011E3  C$main.c$
     000011E5  A$main$34 |    000011E8  A$main$34 |    000011E8  C$main.c$
     000011EB  A$main$35 |    000011EB  C$main.c$ |    000011EE  A$main$35
     000011F0  A$main$36 |    000011F0  C$main.c$ |    000011F0  C$main.c$
     000011F0  XG$main$0 |    000011F3  A$menuloo |    000011F3  C$menuloo
     000011F3  C$menuloo |    000011F3  G$shop_me |    000011F3  _shop_men
     000011F6  A$menuloo |    000011F6  C$menuloo |    000011F9  A$menuloo
     000011FC  A$menuloo |    000011FD  A$menuloo |    000011FF  A$menuloo
     000011FF  C$menuloo |    00001202  A$menuloo |    00001203  A$menuloo
     00001204  A$menuloo |    00001205  A$menuloo |    00001208  A$menuloo
     0000120B  A$menuloo |    0000120B  C$menuloo |    0000120E  A$menuloo
     00001210  A$menuloo |    00001210  C$menuloo |    00001213  A$menuloo
     00001214  A$menuloo |    00001216  A$menuloo |    00001216  C$menuloo
     00001219  A$menuloo |    0000121A  A$menuloo |    0000121B  A$menuloo
     0000121C  A$menuloo |    0000121F  A$menuloo |    0000121F  C$menuloo
     00001222  A$menuloo |    00001225  A$menuloo |    00001225  C$menuloo
     00001228  A$menuloo |    0000122A  A$menuloo |    0000122C  A$menuloo
     0000122C  C$menuloo |    0000122F  A$menuloo |    00001231  A$menuloo
     00001232  A$menuloo |    00001234  A$menuloo |    00001234  C$menuloo
     00001237  A$menuloo |    00001237  C$menuloo |    0000123A  A$menuloo
     0000123A  C$menuloo |    0000123D  A$menuloo |    0000123F  A$menuloo
     0000123F  C$menuloo |    00001242  A$menuloo |    00001245  A$menuloo
     00001246  A$menuloo |    00001248  A$menuloo |    00001249  A$menuloo
     0000124A  A$menuloo |    0000124B  A$menuloo |    0000124C  A$menuloo
     0000124D  A$menuloo |    00001250  A$menuloo |    00001251  A$menuloo
     00001252  A$menuloo |    00001253  A$menuloo |    00001254  A$menuloo
     00001254  C$menuloo |    00001257  A$menuloo |    00001257  C$menuloo
     0000125A  A$menuloo |    0000125A  C$menuloo |    0000125D  A$menuloo
     0000125D  C$menuloo |    00001260  A$menuloo |    00001262  A$menuloo
     00001262  C$menuloo |    00001265  A$menuloo |    00001268  A$menuloo
     00001269  A$menuloo |    00001269  C$menuloo |    00001269  C$menuloo
     00001269  XG$shop_m |    0000126C  G$palette |    0000126C  _palette_
     00001274  G$palette |    00001274  _palette_ |    0000127C  G$palette
     0000127C  _palette_ |    00001284  G$palette |    00001284  _palette_
     0000128C  G$palette |    0000128C  _palette_ |    00001294  G$palette
     00001294  _palette_ |    0000129C  G$palette |    0000129C  _palette_
     000012A4  G$palette |    000012A4  _palette_ |    000012AC  G$palette
     000012AC  _palette_ |    000012B4  G$palette |    000012B4  _palette_
     000012BC  G$palette |    000012BC  _palette_ |    000012C4  G$palette
     000012C4  _palette_ |    000012CC  G$palette |    000012CC  _palette_
     000012D4  G$palette |    000012D4  _palette_ |    000012DC  G$palette
     000012DC  _palette_ |    000012E4  _set_spri |    000012E9  _set_bkg_
     000012EC  .set_pale |    0000130B  _set_spri |    00001310  _set_bkg_
     00001313  .set_pale |    0000132F  __mulsuch |    00001332  __mulusch
ASxxxx Linker V03.00/V05.40 + sdld,  page 20.
Hexadecimal  [32-Bits]

Area                       Addr        Size        Decimal Bytes (Attributes)
--------------------       ----        ----        ------- ----- ------------
_CODE                  00000200    000017CF =        6095. bytes (REL,CON)

        Value  Global            Value  Global            Value  Global    
        -----  ------            -----  ------            -----  ------    
     0000133B  __mulscha |    00001343  __mulint  |    00001362  __mulucha
     00001374  _set_vram |    0000137D  _set_win_ |    00001385  _set_bkg_
     000013AF  ___hide_m |    000013D3  _get_win_ |    000013DB  _get_bkg_
     00001431  ___printf |    00001780  _sprintf  |    000017A1  ___move_m
     000017DE  ___memcpy |    000017DE  _memcpy   |    00001810  _strcat  
     00001822  ___move_m |    00001822  ___move_m |    00001863  ___move_m
     00001863  ___move_m |    000018A4  ___move_m |    000018A4  ___move_m
     000018E7  __divsuch |    000018ED  __modsuch |    000018F6  __divusch
     000018FF  __modusch |    0000190C  __divscha |    00001911  __modscha
     00001918  __divsint |    00001921  __modsint |    0000192D  __divucha
     00001932  __moducha |    00001939  __divuint |    00001942  __moduint
     0000194E  .div8     |    0000194E  .mod8     |    00001956  .div16   
     00001956  .mod16    |    0000198C  .divu8    |    0000198C  .modu8   
     0000198F  .divu16   |    0000198F  .modu16  
ASxxxx Linker V03.00/V05.40 + sdld,  page 21.
Hexadecimal  [32-Bits]

Area                       Addr        Size        Decimal Bytes (Attributes)
--------------------       ----        ----        ------- ----- ------------
_HEADER0               00000000    00000001 =           1. bytes (ABS,CON)

        Value  Global            Value  Global            Value  Global    
        -----  ------            -----  ------            -----  ------    
     00000020  .call_hl 
ASxxxx Linker V03.00/V05.40 + sdld,  page 22.
Hexadecimal  [32-Bits]

Area                       Addr        Size        Decimal Bytes (Attributes)
--------------------       ----        ----        ------- ----- ------------
_HEADER1               00000000    00000005 =           5. bytes (ABS,CON)

        Value  Global            Value  Global            Value  Global    
        -----  ------            -----  ------            -----  ------    
     00000028  .MemsetSm
ASxxxx Linker V03.00/V05.40 + sdld,  page 23.
Hexadecimal  [32-Bits]

Area                       Addr        Size        Decimal Bytes (Attributes)
--------------------       ----        ----        ------- ----- ------------
_HEADER2               00000000    00000007 =           7. bytes (ABS,CON)

        Value  Global            Value  Global            Value  Global    
        -----  ------            -----  ------            -----  ------    
     00000030  .MemcpySm
ASxxxx Linker V03.00/V05.40 + sdld,  page 24.
Hexadecimal  [32-Bits]

Area                       Addr        Size        Decimal Bytes (Attributes)
--------------------       ----        ----        ------- ----- ------------
_HEADER3               00000000    00000008 =           8. bytes (ABS,CON)

        Value  Global            Value  Global            Value  Global    
        -----  ------            -----  ------            -----  ------    
ASxxxx Linker V03.00/V05.40 + sdld,  page 25.
Hexadecimal  [32-Bits]

Area                       Addr        Size        Decimal Bytes (Attributes)
--------------------       ----        ----        ------- ----- ------------
_HEADER4               00000000    0000005C =          92. bytes (ABS,CON)

        Value  Global            Value  Global            Value  Global    
        -----  ------            -----  ------            -----  ------    
     00000080  .int      |    0000008F  _wait_int |    0000009C  __standar
     000000AB  _refresh_ |    000000CC  .wait_vbl |    000000CC  _vsync   
     000000CC  _wait_vbl
ASxxxx Linker V03.00/V05.40 + sdld,  page 26.
Hexadecimal  [32-Bits]

Area                       Addr        Size        Decimal Bytes (Attributes)
--------------------       ----        ----        ------- ----- ------------
_HEADER5               00000000    00000001 =           1. bytes (ABS,CON)

        Value  Global            Value  Global            Value  Global    
        -----  ------            -----  ------            -----  ------    
ASxxxx Linker V03.00/V05.40 + sdld,  page 27.
Hexadecimal  [32-Bits]

Area                       Addr        Size        Decimal Bytes (Attributes)
--------------------       ----        ----        ------- ----- ------------
_HEADER6               00000000    00000002 =           2. bytes (ABS,CON)

        Value  Global            Value  Global            Value  Global    
        -----  ------            -----  ------            -----  ------    
ASxxxx Linker V03.00/V05.40 + sdld,  page 28.
Hexadecimal  [32-Bits]

Area                       Addr        Size        Decimal Bytes (Attributes)
--------------------       ----        ----        ------- ----- ------------
_HEADER7               00000000    00000030 =          48. bytes (ABS,CON)

        Value  Global            Value  Global            Value  Global    
        -----  ------            -----  ------            -----  ------    
ASxxxx Linker V03.00/V05.40 + sdld,  page 29.
Hexadecimal  [32-Bits]

Area                       Addr        Size        Decimal Bytes (Attributes)
--------------------       ----        ----        ------- ----- ------------
_HEADER8               00000000    00000006 =           6. bytes (ABS,CON)

        Value  Global            Value  Global            Value  Global    
        -----  ------            -----  ------            -----  ------    
ASxxxx Linker V03.00/V05.40 + sdld,  page 30.
Hexadecimal  [32-Bits]

Area                       Addr        Size        Decimal Bytes (Attributes)
--------------------       ----        ----        ------- ----- ------------
_HEADER9               00000000    00000003 =           3. bytes (ABS,CON)

        Value  Global            Value  Global            Value  Global    
        -----  ------            -----  ------            -----  ------    
ASxxxx Linker V03.00/V05.40 + sdld,  page 31.
Hexadecimal  [32-Bits]

Area                       Addr        Size        Decimal Bytes (Attributes)
--------------------       ----        ----        ------- ----- ------------
_HEADERa               00000000    00000001 =           1. bytes (ABS,CON)

        Value  Global            Value  Global            Value  Global    
        -----  ------            -----  ------            -----  ------    
ASxxxx Linker V03.00/V05.40 + sdld,  page 32.
Hexadecimal  [32-Bits]

Area                       Addr        Size        Decimal Bytes (Attributes)
--------------------       ----        ----        ------- ----- ------------
_HEADERb               00000000    00000001 =           1. bytes (ABS,CON)

        Value  Global            Value  Global            Value  Global    
        -----  ------            -----  ------            -----  ------    
ASxxxx Linker V03.00/V05.40 + sdld,  page 33.
Hexadecimal  [32-Bits]

Area                       Addr        Size        Decimal Bytes (Attributes)
--------------------       ----        ----        ------- ----- ------------
_HEADERc               00000000    00000001 =           1. bytes (ABS,CON)

        Value  Global            Value  Global            Value  Global    
        -----  ------            -----  ------            -----  ------    
ASxxxx Linker V03.00/V05.40 + sdld,  page 34.
Hexadecimal  [32-Bits]

Area                       Addr        Size        Decimal Bytes (Attributes)
--------------------       ----        ----        ------- ----- ------------
_HEADERd               00000000    00000002 =           2. bytes (ABS,CON)

        Value  Global            Value  Global            Value  Global    
        -----  ------            -----  ------            -----  ------    
ASxxxx Linker V03.00/V05.40 + sdld,  page 35.
Hexadecimal  [32-Bits]

Area                       Addr        Size        Decimal Bytes (Attributes)
--------------------       ----        ----        ------- ----- ------------
_HEADERe               00000000    00000001 =           1. bytes (ABS,CON)

        Value  Global            Value  Global            Value  Global    
        -----  ------            -----  ------            -----  ------    
ASxxxx Linker V03.00/V05.40 + sdld,  page 36.
Hexadecimal  [32-Bits]

Area                       Addr        Size        Decimal Bytes (Attributes)
--------------------       ----        ----        ------- ----- ------------
_HEADERf               00000000    00000001 =           1. bytes (ABS,CON)

        Value  Global            Value  Global            Value  Global    
        -----  ------            -----  ------            -----  ------    
ASxxxx Linker V03.00/V05.40 + sdld,  page 37.
Hexadecimal  [32-Bits]

Area                       Addr        Size        Decimal Bytes (Attributes)
--------------------       ----        ----        ------- ----- ------------
_HEADER10              00000000    00000002 =           2. bytes (ABS,CON)

        Value  Global            Value  Global            Value  Global    
        -----  ------            -----  ------            -----  ------    
ASxxxx Linker V03.00/V05.40 + sdld,  page 38.
Hexadecimal  [32-Bits]

Area                       Addr        Size        Decimal Bytes (Attributes)
--------------------       ----        ----        ------- ----- ------------
_HEADER11              00000000    000000AF =         175. bytes (ABS,CON)

        Value  Global            Value  Global            Value  Global    
        -----  ------            -----  ------            -----  ------    
     00000150  .reset    |    00000150  _reset    |    00000157  .code_sta
     000001B9  _exit     |    000001BD  _set_inte |    000001D1  .remove_V
     000001D1  _remove_V |    000001D4  .remove_i |    000001F1  .add_VBL 
     000001F1  _add_VBL  |    000001F4  .add_int 
ASxxxx Linker V03.00/V05.40 + sdld,  page 39.
Hexadecimal  [32-Bits]

Area                       Addr        Size        Decimal Bytes (Attributes)
--------------------       ----        ----        ------- ----- ------------
_HOME                  000019CF    00000901 =        2305. bytes (REL,CON)

        Value  Global            Value  Global            Value  Global    
        -----  ------            -----  ------            -----  ------    
     000019CF  .memset_s |    000019D8  .memcpy_s |    000019F5  .display_
     000019F5  _display_ |    00001A0D  _font_loa |    00001A14  font_load
     00001A5C  font_copy |    00001A92  font_set  |    00001A9F  .put_char
     00001AB7  .out_char |    00001ABD  .del_char |    00001B13  _putchar 
     00001B1C  _setchar  |    00001B25  _font_loa |    00001B33  _font_set
     00001B42  _font_ini |    00001B61  .cls      |    00001B61  _cls     
     00001B83  _gotoxy   |    00001B8E  _posx     |    00001B9F  _posy    
     00001BC7  .cr_curs  |    00001BDC  .adv_curs |    00001C38  .tmode   
     00001C55  .tmode_ou |    00001C5E  _rand     |    00001C5E  _randw   
     00001C89  _initrand |    00001C8B  .initrand |    00001C94  _set_bkg_
     00001C94  _set_win_ |    00001C9C  _set_spri |    00001CF4  .padup   
     00001CF4  _waitpadu |    00001D04  .jpad     |    00001D04  _joypad  
     00001D2C  _waitpad  |    00001D2D  .wait_pad |    00001D34  _uitoa   
     00001D43  _itoa     |    00001D52  .itoa     |    00001D66  .utoa    
     00001DDA  _set_tile |    00001DDF  _set_bkg_ |    00001DDF  _set_win_
     00001DE7  _set_spri |    00001E17  _abs      |    00001E26  _set_win_
     00001E69  .add_LCD  |    00001E69  _add_LCD  |    00001E6F  .remove_L
     00001E6F  _remove_L |    00001E75  ___sdcc_c |    00001E76  _color   
     00001E76  _set_1bpp |    00001E85  .drawing_ |    00001EA2  _font_ibm
     00002254  _strlen   |    00002259  .strlen   |    00002262  _set_bkg_
     00002276  .set_xy_w |    0000227F  .set_xy_b |    0000228E  .set_xy_t
ASxxxx Linker V03.00/V05.40 + sdld,  page 40.
Hexadecimal  [32-Bits]

Area                       Addr        Size        Decimal Bytes (Attributes)
--------------------       ----        ----        ------- ----- ------------
_INITIALIZER           000022D0    000007BA =        1978. bytes (REL,CON)

        Value  Global            Value  Global            Value  Global    
        -----  ------            -----  ------            -----  ------    
     000022D0  Fattribut |    000022DC  Ffont$__x |    0000237C  Fglobals$
     0000237D  Fglobals$ |    0000237E  Fglobals$ |    0000237F  Fglobals$
     00002380  Fglobals$ |    00002381  Fglobals$ |    00002382  Fglobals$
     00002383  Fglobals$ |    00002384  Fglobals$ |    00002385  Fglobals$
     00002386  Fglobals$ |    00002387  Fglobals$ |    00002388  Fglobals$
     00002389  Fglobals$ |    0000238A  Fglobals$ |    0000238B  Finventor
     00002463  Flevel$__ |    00002A63  Fpalettes |    00002A6B  Fshop$__x
     00002A79  Fshop$__x |    00002A7A  Fshop$__x |    00002A7B  Fshop$__x
     00002A7C  Fshop$__x |    00002A7D  Fshop$__x |    00002A7E  Fshop$__x
     00002A7F  Fshop$__x |    00002A80  Fshop$__x |    00002A81  Fshop$__x
ASxxxx Linker V03.00/V05.40 + sdld,  page 41.
Hexadecimal  [32-Bits]

Area                       Addr        Size        Decimal Bytes (Attributes)
--------------------       ----        ----        ------- ----- ------------
_GSINIT                00002A8A    0000000C =          12. bytes (REL,CON)

        Value  Global            Value  Global            Value  Global    
        -----  ------            -----  ------            -----  ------    
     00002A8A  gsinit   
ASxxxx Linker V03.00/V05.40 + sdld,  page 42.
Hexadecimal  [32-Bits]

Area                       Addr        Size        Decimal Bytes (Attributes)
--------------------       ----        ----        ------- ----- ------------
_GSFINAL               00002A96    00000001 =           1. bytes (REL,CON)

        Value  Global            Value  Global            Value  Global    
        -----  ------            -----  ------            -----  ------    
ASxxxx Linker V03.00/V05.40 + sdld,  page 43.
Hexadecimal  [32-Bits]

Area                       Addr        Size        Decimal Bytes (Attributes)
--------------------       ----        ----        ------- ----- ------------
_DATA                  0000C0A0    000001AF =         431. bytes (REL,CON)

        Value  Global            Value  Global            Value  Global    
        -----  ------            -----  ------            -----  ------    
     0000C0A0  __cpu     |    0000C0A1  __is_GBA  |    0000C0A2  .mode    
     0000C0A3  .sys_time |    0000C0A3  _sys_time |    0000C0A5  .int_0x40
     0000C0B1  G$saved_b |    0000C0B1  _saved_ba |    0000C0B2  G$prev_de
     0000C0B2  _prev_dep |    0000C0B3  G$prev_wi |    0000C0B3  _prev_wid
     0000C0B4  G$depth_p |    0000C0B4  _depth_pi |    0000C0B6  G$width_p
     0000C0B6  _width_pi |    0000C0B8  G$scroll_ |    0000C0B8  _scroll_x
     0000C0BA  G$scroll_ |    0000C0BA  _scroll_y |    0000C0BC  G$ore_res
     0000C0BC  _ore_resi |    0000C0BE  G$move_x_ |    0000C0BE  _move_x_p
     0000C0C0  G$move_y_ |    0000C0C0  _move_y_p |    0000C0C2  G$scroll_
     0000C0C2  _scroll_x |    0000C0C4  G$scroll_ |    0000C0C4  _scroll_y
     0000C0C6  G$directi |    0000C0C6  _directio |    0000C0C7  G$directi
     0000C0C7  _directio |    0000C0C8  G$is_dril |    0000C0C8  _is_drill
     0000C0C9  G$buttons |    0000C0C9  _buttons  |    0000C0CA  G$next_ti
     0000C0CA  _next_til |    0000C0CB  G$next_ti |    0000C0CB  _next_til
     0000C0CC  G$next_ti |    0000C0CC  _next_til |    0000C0CD  G$next_ti
     0000C0CD  _next_til |    0000C0CE  G$next_ti |    0000C0CE  _next_til
     0000C0CF  G$player$ |    0000C0CF  _player   |    0000C22B  font_curr
     0000C22E  font_firs |    0000C22F  font_tabl |    0000C241  ___rand_s
     0000C243  .int_0x48 |    0000C24B  ___curren |    0000C24D  ___curren
     0000C24E  ___curren
ASxxxx Linker V03.00/V05.40 + sdld,  page 44.
Hexadecimal  [32-Bits]

Area                       Addr        Size        Decimal Bytes (Attributes)
--------------------       ----        ----        ------- ----- ------------
_INITIALIZED           0000C24F    000007BA =        1978. bytes (REL,CON)

        Value  Global            Value  Global            Value  Global    
        -----  ------            -----  ------            -----  ------    
     0000C24F  G$attribu |    0000C24F  _attribut |    0000C25B  G$font$0_
     0000C25B  _font     |    0000C2FB  G$frame_c |    0000C2FB  _frame_co
     0000C2FC  G$update_ |    0000C2FC  _update_m |    0000C2FD  G$left_sh
     0000C2FD  _left_sho |    0000C2FE  G$left_se |    0000C2FE  _left_sel
     0000C2FF  G$player_ |    0000C2FF  _player_a |    0000C300  G$current
     0000C300  _currentG |    0000C301  G$depth$0 |    0000C301  _depth   
     0000C302  G$width$0 |    0000C302  _width    |    0000C303  G$depth_o
     0000C303  _depth_of |    0000C304  G$width_o |    0000C304  _width_of
     0000C305  G$animati |    0000C305  _animatio |    0000C306  G$velocit
     0000C306  _velocity |    0000C307  G$base_dr |    0000C307  _base_dri
     0000C308  G$tile_mi |    0000C308  _tile_min |    0000C309  G$prev_bu
     0000C309  _prev_but |    0000C30A  G$materia |    0000C30A  _material
     0000C3E2  G$level_a |    0000C3E2  _level_ar |    0000C9E2  G$palette
     0000C9E2  _palette_ |    0000C9EA  G$menu_nu |    0000C9EA  _menu_num
     0000C9F8  G$drill_m |    0000C9F8  _drill_me |    0000C9F9  G$hull_me
     0000C9F9  _hull_men |    0000C9FA  G$engine_ |    0000C9FA  _engine_m
     0000C9FB  G$fuel_me |    0000C9FB  _fuel_men |    0000C9FC  G$radiato
     0000C9FC  _radiator |    0000C9FD  G$cargo_m |    0000C9FD  _cargo_me
     0000C9FE  G$main_me |    0000C9FE  _main_men |    0000C9FF  G$current
     0000C9FF  _currentS |    0000CA00  G$current |    0000CA00  _currentM
     0000CA02  .curx     |    0000CA03  .cury     |    0000CA04  ___render
     0000CA05  .fg_colou |    0000CA05  __current |    0000CA06  .bg_colou
     0000CA07  .draw_mod |    0000CA08  __map_til
ASxxxx Linker V03.00/V05.40 + sdld,  page 45.
Hexadecimal  [32-Bits]

Area                       Addr        Size        Decimal Bytes (Attributes)
--------------------       ----        ----        ------- ----- ------------
_HRAM12                00000000    00000003 =           3. bytes (ABS,CON)

        Value  Global            Value  Global            Value  Global    
        -----  ------            -----  ------            -----  ------    
     0000FF90  __current |    0000FF92  __shadow_
ASxxxx Linker V03.00/V05.40 + sdld,  page 46.
Hexadecimal  [32-Bits]

Area                       Addr        Size        Decimal Bytes (Attributes)
--------------------       ----        ----        ------- ----- ------------
_CODE_1                00014000    00001571 =        5489. bytes (REL,CON)

        Value  Global            Value  Global            Value  Global    
        -----  ------            -----  ------            -----  ------    
     00014000  A$map$92  |    00014000  C$level.c |    00014000  C$map.c$3
     00014000  C$map.c$3 |    00014000  G$__func_ |    00014000  G$__func_
     00014000  G$shuffle |    00014000  ___func_b |    00014000  ___func_b
     00014000  _shuffle  |    00014001  A$map$96  |    00014001  C$map.c$3
     00014003  A$map$97  |    00014004  A$map$105 |    00014004  C$map.c$3
     00014006  A$map$106 |    00014007  A$map$107 |    00014008  A$map$108
     00014009  A$map$112 |    00014009  C$map.c$3 |    0001400A  A$map$113
     0001400B  A$map$114 |    0001400C  A$map$115 |    0001400D  A$map$116
     00014010  A$map$117 |    00014011  A$map$118 |    00014014  A$map$119
     00014015  A$map$120 |    00014016  A$map$121 |    00014018  A$map$122
     00014019  A$map$132 |    00014019  C$map.c$4 |    00014019  C$map.c$4
     0001401A  A$map$133 |    0001401B  A$map$134 |    0001401E  A$map$135
     0001401F  A$map$136 |    00014020  A$map$137 |    00014021  A$map$138
     00014023  A$map$139 |    00014024  A$map$143 |    00014024  C$map.c$4
     00014025  A$map$144 |    00014026  A$map$145 |    00014028  A$map$149
     00014028  C$map.c$4 |    0001402A  A$map$150 |    0001402B  A$map$151
     0001402C  A$map$152 |    0001402D  A$map$153 |    0001402F  A$map$154
     00014030  A$map$155 |    00014031  A$map$159 |    00014031  C$map.c$4
     00014032  A$map$160 |    00014033  A$map$161 |    00014034  A$map$162
     00014035  A$map$163 |    00014037  A$map$164 |    00014038  A$map$165
     00014039  A$map$166 |    0001403A  A$map$170 |    0001403A  C$map.c$4
     0001403C  A$map$171 |    0001403D  A$map$172 |    0001403E  A$map$176
     0001403E  C$map.c$5 |    0001403F  A$map$177 |    00014042  A$map$178
     00014043  A$map$179 |    00014044  A$map$180 |    00014046  A$map$181
     00014047  A$map$191 |    00014047  C$map.c$5 |    00014047  C$map.c$5
     00014048  A$map$192 |    00014049  A$map$193 |    0001404C  A$map$194
     0001404D  A$map$195 |    0001404E  A$map$196 |    0001404F  A$map$197
     00014051  A$map$198 |    00014052  A$map$202 |    00014052  C$map.c$5
     00014053  A$map$203 |    00014054  A$map$204 |    00014056  A$map$208
     00014056  C$map.c$5 |    00014058  A$map$209 |    00014059  A$map$210
     0001405A  A$map$214 |    0001405A  C$map.c$5 |    0001405B  A$map$215
     0001405C  A$map$216 |    0001405D  A$map$217 |    0001405F  A$map$218
     00014060  A$map$220 |    00014061  A$map$221 |    00014062  A$map$225
     00014062  C$map.c$5 |    00014063  A$map$226 |    00014064  A$map$230
     00014065  A$map$235 |    00014065  C$map.c$5 |    00014065  XG$shuffl
     00014066  A$map$248 |    00014066  C$map.c$6 |    00014066  C$map.c$6
     00014066  G$change_ |    00014066  _change_b |    00014069  A$map$249
     0001406A  A$map$250 |    0001406C  A$map$251 |    0001406D  A$map$252
     0001406E  A$map$253 |    0001406F  A$map$254 |    00014070  A$map$255
     00014071  A$map$256 |    00014073  A$map$257 |    00014074  A$map$258
     00014075  A$map$259 |    00014076  A$map$260 |    00014077  A$map$261
     00014078  A$map$262 |    0001407A  A$map$263 |    0001407C  A$map$264
     0001407E  A$map$265 |    00014080  A$map$266 |    00014082  A$map$267
     00014084  A$map$268 |    00014085  A$map$269 |    00014087  A$map$270
     00014089  A$map$271 |    0001408B  A$map$272 |    0001408C  A$map$273
     0001408D  A$map$274 |    0001408E  A$map$275 |    0001408F  A$map$276
     00014090  A$map$277 |    00014093  A$map$278 |    00014095  A$map$286
     00014095  C$map.c$6 |    00014095  XG$change |    00014096  A$map$296
     00014096  C$map.c$7 |    00014096  G$set_4bk |    00014096  _set_4bkg
     00014098  A$map$297 |    0001409A  A$map$298 |    0001409B  A$map$299
ASxxxx Linker V03.00/V05.40 + sdld,  page 47.
Hexadecimal  [32-Bits]

Area                       Addr        Size        Decimal Bytes (Attributes)
--------------------       ----        ----        ------- ----- ------------
_CODE_1                00014000    00001571 =        5489. bytes (REL,CON)

        Value  Global            Value  Global            Value  Global    
        -----  ------            -----  ------            -----  ------    
     0001409C  A$map$300 |    0001409D  A$map$301 |    0001409E  A$map$302
     0001409F  A$map$303 |    000140A0  A$map$307 |    000140A0  C$map.c$7
     000140A2  A$map$308 |    000140A3  A$map$309 |    000140A5  A$map$310
     000140A6  A$map$312 |    000140A8  A$map$313 |    000140A9  A$map$314
     000140AB  A$map$315 |    000140AC  A$map$316 |    000140AD  A$map$317
     000140AE  A$map$318 |    000140B0  A$map$319 |    000140B1  A$map$321
     000140B3  A$map$322 |    000140B4  A$map$323 |    000140B6  A$map$324
     000140B7  A$map$325 |    000140B8  A$map$326 |    000140B9  A$map$327
     000140BA  A$map$328 |    000140BB  A$map$329 |    000140BC  A$map$330
     000140BD  A$map$331 |    000140BE  A$map$332 |    000140BF  A$map$333
     000140C0  A$map$334 |    000140C2  A$map$335 |    000140C4  A$map$336
     000140C6  A$map$337 |    000140C8  A$map$338 |    000140C9  A$map$339
     000140CB  A$map$341 |    000140CD  A$map$342 |    000140CF  A$map$343
     000140D0  A$map$345 |    000140D3  A$map$349 |    000140D3  C$map.c$7
     000140D5  A$map$350 |    000140D6  A$map$351 |    000140D7  A$map$352
     000140D9  A$map$353 |    000140DA  A$map$354 |    000140DC  A$map$355
     000140DD  A$map$356 |    000140DF  A$map$357 |    000140E0  A$map$359
     000140E2  A$map$360 |    000140E3  A$map$361 |    000140E5  A$map$362
     000140E6  A$map$363 |    000140E8  A$map$364 |    000140EA  A$map$365
     000140EB  A$map$366 |    000140ED  A$map$367 |    000140EE  A$map$368
     000140EF  A$map$369 |    000140F0  A$map$370 |    000140F1  A$map$371
     000140F2  A$map$372 |    000140F3  A$map$373 |    000140F5  A$map$374
     000140F6  A$map$375 |    000140F7  A$map$376 |    000140F8  A$map$377
     000140F9  A$map$378 |    000140FA  A$map$379 |    000140FB  A$map$380
     000140FD  A$map$381 |    000140FE  A$map$382 |    000140FF  A$map$383
     00014100  A$map$384 |    00014102  A$map$385 |    00014103  A$map$386
     00014104  A$map$387 |    00014105  A$map$388 |    00014107  A$map$389
     00014108  A$map$390 |    0001410A  A$map$391 |    0001410C  A$map$392
     0001410D  A$map$393 |    0001410E  A$map$394 |    00014110  A$map$395
     00014111  A$map$396 |    00014112  A$map$397 |    00014113  A$map$398
     00014114  A$map$399 |    00014115  A$map$400 |    00014116  A$map$401
     00014117  A$map$402 |    00014118  A$map$403 |    0001411A  A$map$404
     0001411C  A$map$405 |    0001411E  A$map$406 |    00014120  A$map$407
     00014121  A$map$408 |    00014123  A$map$410 |    00014125  A$map$411
     00014127  A$map$412 |    00014128  A$map$414 |    0001412B  A$map$418
     0001412B  C$map.c$7 |    0001412D  A$map$419 |    0001412E  A$map$420
     00014130  A$map$421 |    00014131  A$map$422 |    00014133  A$map$423
     00014134  A$map$424 |    00014136  A$map$425 |    00014137  A$map$426
     00014139  A$map$427 |    0001413A  A$map$428 |    0001413C  A$map$429
     0001413D  A$map$430 |    0001413F  A$map$431 |    00014140  A$map$432
     00014141  A$map$433 |    00014142  A$map$434 |    00014143  A$map$435
     00014144  A$map$436 |    00014145  A$map$437 |    00014147  A$map$438
     00014148  A$map$439 |    0001414A  A$map$440 |    0001414B  A$map$441
     0001414C  A$map$442 |    0001414D  A$map$443 |    0001414E  A$map$444
     0001414F  A$map$445 |    00014150  A$map$446 |    00014152  A$map$447
     00014154  A$map$448 |    00014155  A$map$452 |    00014155  C$map.c$7
     00014156  A$map$453 |    00014158  A$map$454 |    00014159  A$map$455
     0001415B  A$map$456 |    0001415C  A$map$457 |    0001415E  A$map$458
     0001415F  A$map$459 |    00014160  A$map$460 |    00014161  A$map$461
     00014163  A$map$462 |    00014164  A$map$463 |    00014166  A$map$464
     00014167  A$map$465 |    00014168  A$map$466 |    00014169  A$map$467
ASxxxx Linker V03.00/V05.40 + sdld,  page 48.
Hexadecimal  [32-Bits]

Area                       Addr        Size        Decimal Bytes (Attributes)
--------------------       ----        ----        ------- ----- ------------
_CODE_1                00014000    00001571 =        5489. bytes (REL,CON)

        Value  Global            Value  Global            Value  Global    
        -----  ------            -----  ------            -----  ------    
     0001416B  A$map$468 |    0001416C  A$map$469 |    0001416E  A$map$470
     0001416F  A$map$471 |    00014170  A$map$472 |    00014171  A$map$473
     00014172  A$map$474 |    00014174  A$map$475 |    00014175  A$map$479
     00014175  C$map.c$8 |    00014176  A$map$483 |    00014176  C$map.c$8
     00014177  A$map$484 |    00014179  A$map$485 |    0001417B  A$map$486
     0001417C  A$map$487 |    0001417D  A$map$489 |    0001417F  A$map$490
     00014180  A$map$491 |    00014182  A$map$492 |    00014183  A$map$493
     00014185  A$map$494 |    00014186  A$map$495 |    00014188  A$map$496
     0001418A  A$map$497 |    0001418C  A$map$498 |    0001418E  A$map$499
     00014190  A$map$500 |    00014191  A$map$501 |    00014193  A$map$503
     00014195  A$map$504 |    00014197  A$map$505 |    00014198  A$map$507
     0001419B  A$map$508 |    0001419C  A$map$509 |    0001419F  A$map$510
     000141A0  A$map$511 |    000141A1  A$map$512 |    000141A2  A$map$513
     000141A3  A$map$514 |    000141A5  A$map$515 |    000141A6  A$map$516
     000141A7  A$map$517 |    000141A8  A$map$518 |    000141A9  A$map$519
     000141AA  A$map$520 |    000141AB  A$map$521 |    000141AC  A$map$522
     000141AD  A$map$523 |    000141AF  A$map$524 |    000141B0  A$map$525
     000141B2  A$map$526 |    000141B3  A$map$527 |    000141B4  A$map$528
     000141B6  A$map$533 |    000141B6  C$map.c$8 |    000141B8  A$map$534
     000141BA  A$map$538 |    000141BA  C$map.c$8 |    000141BB  A$map$539
     000141BE  A$map$540 |    000141BF  A$map$541 |    000141C0  A$map$542
     000141C2  A$map$543 |    000141C4  A$map$544 |    000141C5  A$map$545
     000141C7  A$map$546 |    000141C8  A$map$550 |    000141C8  C$map.c$8
     000141C9  A$map$551 |    000141CC  A$map$552 |    000141CD  A$map$553
     000141CE  A$map$554 |    000141D0  A$map$555 |    000141D2  A$map$556
     000141D3  A$map$557 |    000141D5  A$map$558 |    000141D6  A$map$562
     000141D6  C$map.c$8 |    000141D8  A$map$563 |    000141D9  A$map$564
     000141DA  A$map$565 |    000141DC  A$map$566 |    000141DD  A$map$570
     000141DD  C$map.c$8 |    000141DF  A$map$571 |    000141E0  A$map$572
     000141E1  A$map$573 |    000141E2  A$map$574 |    000141E4  A$map$575
     000141E5  A$map$576 |    000141E7  A$map$584 |    000141E7  C$map.c$8
     000141E7  C$map.c$8 |    000141E8  A$map$585 |    000141EA  A$map$586
     000141EC  A$map$587 |    000141ED  A$map$588 |    000141EE  A$map$590
     000141F0  A$map$591 |    000141F1  A$map$592 |    000141F3  A$map$593
     000141F4  A$map$594 |    000141F6  A$map$595 |    000141F7  A$map$596
     000141F9  A$map$597 |    000141FB  A$map$598 |    000141FD  A$map$599
     000141FF  A$map$600 |    00014201  A$map$601 |    00014202  A$map$602
     00014204  A$map$604 |    00014206  A$map$605 |    00014208  A$map$606
     00014209  A$map$608 |    0001420B  A$map$609 |    0001420C  A$map$610
     0001420F  A$map$611 |    00014210  A$map$612 |    00014211  A$map$613
     00014212  A$map$614 |    00014213  A$map$615 |    00014215  A$map$616
     00014216  A$map$617 |    00014217  A$map$618 |    00014218  A$map$619
     00014219  A$map$620 |    0001421A  A$map$621 |    0001421B  A$map$622
     0001421D  A$map$623 |    0001421E  A$map$624 |    00014220  A$map$625
     00014221  A$map$626 |    00014222  A$map$627 |    00014224  A$map$628
     00014225  A$map$629 |    00014227  A$map$630 |    00014228  A$map$631
     00014229  A$map$632 |    0001422B  A$map$637 |    0001422B  C$map.c$8
     0001422C  A$map$638 |    0001422F  A$map$639 |    00014230  A$map$640
     00014231  A$map$641 |    00014232  A$map$642 |    00014235  A$map$643
     00014236  A$map$648 |    00014236  C$map.c$9 |    00014237  A$map$649
     00014238  A$map$650 |    0001423A  A$map$654 |    0001423A  C$map.c$9
ASxxxx Linker V03.00/V05.40 + sdld,  page 49.
Hexadecimal  [32-Bits]

Area                       Addr        Size        Decimal Bytes (Attributes)
--------------------       ----        ----        ------- ----- ------------
_CODE_1                00014000    00001571 =        5489. bytes (REL,CON)

        Value  Global            Value  Global            Value  Global    
        -----  ------            -----  ------            -----  ------    
     0001423D  A$map$656 |    0001423E  A$map$657 |    00014240  A$map$658
     00014241  A$map$659 |    00014242  A$map$660 |    00014243  A$map$661
     00014244  A$map$662 |    00014246  A$map$663 |    00014249  A$map$664
     0001424C  A$map$665 |    0001424D  A$map$666 |    0001424E  A$map$667
     00014250  A$map$668 |    00014251  A$map$669 |    00014253  A$map$674
     00014253  C$map.c$9 |    00014254  A$map$675 |    00014256  A$map$676
     00014257  A$map$677 |    00014258  A$map$679 |    0001425A  A$map$680
     0001425B  A$map$681 |    0001425D  A$map$682 |    0001425E  A$map$683
     00014260  A$map$684 |    00014261  A$map$685 |    00014263  A$map$686
     00014265  A$map$687 |    00014267  A$map$688 |    00014269  A$map$689
     0001426B  A$map$690 |    0001426C  A$map$691 |    0001426E  A$map$693
     00014270  A$map$694 |    00014272  A$map$695 |    00014273  A$map$697
     00014276  A$map$698 |    00014277  A$map$699 |    0001427A  A$map$700
     0001427B  A$map$701 |    0001427C  A$map$702 |    0001427D  A$map$703
     0001427E  A$map$704 |    00014280  A$map$705 |    00014281  A$map$706
     00014282  A$map$707 |    00014283  A$map$708 |    00014284  A$map$709
     00014285  A$map$710 |    00014286  A$map$711 |    00014288  A$map$712
     00014289  A$map$713 |    0001428A  A$map$714 |    0001428B  A$map$715
     0001428D  A$map$716 |    0001428E  A$map$717 |    0001428F  A$map$718
     00014292  A$map$719 |    00014293  A$map$720 |    00014294  A$map$721
     00014295  A$map$722 |    00014296  A$map$723 |    00014298  A$map$724
     00014299  A$map$725 |    0001429A  A$map$726 |    0001429B  A$map$727
     0001429C  A$map$728 |    0001429D  A$map$729 |    0001429E  A$map$730
     0001429F  A$map$731 |    000142A0  A$map$732 |    000142A2  A$map$733
     000142A5  A$map$734 |    000142A6  A$map$735 |    000142A7  A$map$736
     000142A8  A$map$737 |    000142AA  A$map$738 |    000142AB  A$map$739
     000142AC  A$map$740 |    000142AD  A$map$741 |    000142AF  A$map$742
     000142B0  A$map$743 |    000142B1  A$map$744 |    000142B2  A$map$745
     000142B3  A$map$746 |    000142B4  A$map$747 |    000142B5  A$map$748
     000142B6  A$map$749 |    000142B7  A$map$750 |    000142B9  A$map$751
     000142BB  A$map$752 |    000142BE  A$map$753 |    000142BF  A$map$754
     000142C0  A$map$755 |    000142C1  A$map$756 |    000142C3  A$map$757
     000142C4  A$map$758 |    000142C5  A$map$759 |    000142C6  A$map$760
     000142C8  A$map$761 |    000142C9  A$map$763 |    000142CB  A$map$764
     000142CC  A$map$765 |    000142CD  A$map$766 |    000142CE  A$map$767
     000142D0  A$map$768 |    000142D2  A$map$769 |    000142D4  A$map$770
     000142D6  A$map$771 |    000142D7  A$map$772 |    000142D8  A$map$773
     000142D9  A$map$774 |    000142DA  A$map$775 |    000142DB  A$map$776
     000142DC  A$map$777 |    000142DF  A$map$778 |    000142E0  A$map$779
     000142E3  A$map$780 |    000142E4  A$map$781 |    000142E5  A$map$782
     000142E7  A$map$783 |    000142E8  A$map$784 |    000142E9  A$map$785
     000142EA  A$map$786 |    000142EB  A$map$787 |    000142ED  A$map$788
     000142EE  A$map$789 |    000142F1  A$map$790 |    000142F2  A$map$791
     000142F3  A$map$792 |    000142F6  A$map$797 |    000142F6  C$map.c$9
     000142F7  A$map$798 |    000142F9  A$map$802 |    000142F9  C$map.c$1
     000142FB  A$map$803 |    000142FC  A$map$804 |    000142FD  A$map$805
     000142FE  A$map$806 |    00014301  A$map$807 |    00014302  A$map$808
     00014303  A$map$809 |    00014306  A$map$810 |    00014307  A$map$811
     00014309  A$map$812 |    0001430A  A$map$813 |    0001430B  A$map$814
     0001430C  A$map$815 |    0001430D  A$map$816 |    0001430E  A$map$817
     00014311  A$map$818 |    00014313  A$map$822 |    00014313  C$map.c$1
ASxxxx Linker V03.00/V05.40 + sdld,  page 50.
Hexadecimal  [32-Bits]

Area                       Addr        Size        Decimal Bytes (Attributes)
--------------------       ----        ----        ------- ----- ------------
_CODE_1                00014000    00001571 =        5489. bytes (REL,CON)

        Value  Global            Value  Global            Value  Global    
        -----  ------            -----  ------            -----  ------    
     00014315  A$map$823 |    00014316  A$map$824 |    00014317  A$map$825
     00014318  A$map$826 |    00014319  A$map$827 |    0001431C  A$map$828
     0001431D  A$map$829 |    0001431E  A$map$830 |    00014321  A$map$831
     00014322  A$map$832 |    00014323  A$map$833 |    00014324  A$map$834
     00014325  A$map$835 |    00014326  A$map$836 |    00014327  A$map$837
     0001432A  A$map$838 |    0001432C  A$map$842 |    0001432C  C$map.c$1
     0001432E  A$map$843 |    00014330  A$map$847 |    00014330  C$map.c$1
     00014333  A$map$848 |    00014334  A$map$849 |    00014335  A$map$850
     00014338  A$map$851 |    00014339  A$map$852 |    0001433B  A$map$853
     0001433C  A$map$854 |    0001433D  A$map$855 |    0001433E  A$map$856
     0001433F  A$map$857 |    00014340  A$map$858 |    00014343  A$map$859
     00014345  A$map$863 |    00014345  C$map.c$1 |    00014348  A$map$864
     00014349  A$map$865 |    0001434A  A$map$866 |    0001434D  A$map$867
     0001434E  A$map$868 |    0001434F  A$map$869 |    00014350  A$map$870
     00014351  A$map$871 |    00014352  A$map$872 |    00014353  A$map$873
     00014356  A$map$874 |    00014358  A$map$878 |    00014358  C$map.c$1
     00014359  A$map$879 |    0001435B  A$map$883 |    0001435B  C$map.c$7
     0001435D  A$map$884 |    0001435E  A$map$885 |    00014361  A$map$890
     00014361  C$map.c$7 |    00014363  A$map$891 |    00014364  A$map$892
     00014367  A$map$897 |    00014367  C$map.c$1 |    00014369  A$map$898
     0001436A  A$map$899 |    0001436C  A$map$900 |    0001436D  A$map$913
     0001436D  C$map.c$1 |    0001436D  C$map.c$1 |    0001436D  G$spawn_b
     0001436D  _spawn_bk |    0001436F  A$map$914 |    00014372  A$map$915
     00014373  A$map$916 |    00014374  A$map$920 |    00014374  C$map.c$1
     00014375  A$map$921 |    00014377  A$map$922 |    0001437A  A$map$923
     0001437B  A$map$924 |    0001437D  A$map$925 |    0001437E  A$map$926
     0001437F  A$map$927 |    00014380  A$map$928 |    00014381  A$map$929
     00014382  A$map$930 |    00014385  A$map$931 |    00014386  A$map$932
     00014387  A$map$933 |    00014389  A$map$934 |    0001438A  A$map$935
     0001438C  A$map$936 |    0001438D  A$map$937 |    0001438E  A$map$938
     0001438F  A$map$939 |    00014390  A$map$940 |    00014393  A$map$941
     00014394  A$map$942 |    00014395  A$map$943 |    00014396  A$map$944
     00014397  A$map$945 |    00014398  A$map$946 |    0001439B  A$map$947
     0001439E  A$map$948 |    0001439F  A$map$953 |    0001439F  C$map.c$1
     000143A0  A$map$954 |    000143A2  A$map$955 |    000143A3  A$map$956
     000143A4  A$map$957 |    000143A5  A$map$958 |    000143A7  A$map$959
     000143A8  A$map$960 |    000143AB  A$map$961 |    000143AC  A$map$962
     000143AD  A$map$963 |    000143AE  A$map$964 |    000143AF  A$map$965
     000143B2  A$map$966 |    000143B5  A$map$974 |    000143B5  C$map.c$1
     000143B5  XG$spawn_ |    000143B6  A$map$984 |    000143B6  C$map.c$1
     000143B6  G$clear_4 |    000143B6  _clear_4b |    000143B7  A$map$988
     000143B7  C$map.c$1 |    000143B9  A$map$989 |    000143BA  A$map$990
     000143BC  A$map$991 |    000143BD  A$map$992 |    000143BE  A$map$993
     000143BF  A$map$994 |    000143C0  A$map$995 |    000143C1  A$map$996
     000143C3  A$map$997 |    000143C4  A$map$998 |    000143C6  A$map$100
     000143C6  C$map.c$1 |    000143C9  A$map$100 |    000143CA  A$map$100
     000143CC  A$map$100 |    000143CD  A$map$100 |    000143CE  A$map$100
     000143CF  A$map$100 |    000143D0  A$map$100 |    000143D3  A$map$101
     000143D3  C$map.c$1 |    000143D4  A$map$101 |    000143D5  A$map$101
     000143D6  A$map$102 |    000143D6  C$map.c$1 |    000143D6  G$add_blo
     000143D6  _add_bloc |    000143D7  A$map$102 |    000143D7  C$map.c$1
ASxxxx Linker V03.00/V05.40 + sdld,  page 51.
Hexadecimal  [32-Bits]

Area                       Addr        Size        Decimal Bytes (Attributes)
--------------------       ----        ----        ------- ----- ------------
_CODE_1                00014000    00001571 =        5489. bytes (REL,CON)

        Value  Global            Value  Global            Value  Global    
        -----  ------            -----  ------            -----  ------    
     000143D9  A$map$103 |    000143DA  A$map$103 |    000143DC  A$map$103
     000143DD  A$map$103 |    000143DE  A$map$103 |    000143DF  A$map$103
     000143E0  A$map$103 |    000143E1  A$map$103 |    000143E2  A$map$103
     000143E3  A$map$103 |    000143E4  A$map$104 |    000143E5  A$map$104
     000143E7  A$map$104 |    000143E8  A$map$104 |    000143EA  A$map$104
     000143EA  C$map.c$1 |    000143EB  A$map$104 |    000143EC  A$map$105
     000143EF  A$map$105 |    000143F0  A$map$105 |    000143F1  A$map$105
     000143F2  A$map$105 |    000143F3  A$map$105 |    000143F4  A$map$105
     000143F7  A$map$105 |    000143FA  A$map$106 |    000143FA  C$map.c$1
     000143FB  A$map$106 |    000143FC  A$map$106 |    000143FD  A$map$107
     000143FD  C$map.c$1 |    000143FD  G$progres |    000143FD  _progress
     000143FF  A$map$107 |    00014401  A$map$107 |    00014402  A$map$107
     00014403  A$map$107 |    00014404  A$map$108 |    00014404  C$map.c$1
     00014406  A$map$108 |    00014407  A$map$108 |    00014409  A$map$108
     0001440A  A$map$108 |    0001440B  A$map$108 |    0001440C  A$map$108
     0001440D  A$map$108 |    0001440E  A$map$109 |    0001440E  C$map.c$1
     0001440F  A$map$109 |    00014411  A$map$109 |    00014414  A$map$109
     00014415  A$map$109 |    00014416  A$map$109 |    00014418  A$map$109
     00014419  A$map$109 |    0001441A  A$map$110 |    0001441B  A$map$110
     0001441E  A$map$110 |    0001441E  C$map.c$1 |    00014420  A$map$110
     00014421  A$map$110 |    00014422  A$map$110 |    00014424  A$map$110
     00014426  A$map$111 |    00014427  A$map$111 |    00014429  A$map$111
     0001442A  A$map$111 |    0001442C  A$map$111 |    0001442D  A$map$111
     0001442F  A$map$111 |    00014430  A$map$111 |    00014432  A$map$111
     00014434  A$map$112 |    00014436  A$map$112 |    00014437  A$map$112
     00014439  A$map$112 |    0001443A  A$map$112 |    0001443D  A$map$112
     0001443D  C$map.c$1 |    0001443F  A$map$113 |    0001443F  C$map.c$1
     00014441  A$map$113 |    00014442  A$map$113 |    00014444  A$map$113
     00014445  A$map$113 |    00014447  A$map$113 |    00014449  A$map$113
     0001444B  A$map$114 |    0001444C  A$map$114 |    0001444C  C$map.c$1
     0001444D  A$map$114 |    0001444F  A$map$115 |    00014450  A$map$115
     00014451  A$map$115 |    00014452  A$map$115 |    00014453  A$map$115
     00014454  A$map$115 |    00014455  A$map$116 |    00014455  C$map.c$1
     00014457  A$map$116 |    00014458  A$map$116 |    0001445B  A$map$116
     0001445C  A$map$116 |    0001445E  A$map$116 |    00014461  A$map$116
     00014462  A$map$116 |    00014463  A$map$116 |    00014464  A$map$117
     00014465  A$map$117 |    00014468  A$map$117 |    0001446B  A$map$117
     0001446E  A$map$117 |    00014471  A$map$117 |    00014474  A$map$117
     00014477  A$map$117 |    0001447A  A$map$117 |    0001447D  A$map$118
     00014480  A$map$118 |    00014480  C$map.c$1 |    00014482  A$map$118
     00014484  A$map$119 |    00014484  C$map.c$1 |    00014486  A$map$119
     00014488  A$map$119 |    00014488  C$map.c$1 |    0001448A  A$map$119
     0001448C  A$map$120 |    0001448C  C$map.c$1 |    0001448E  A$map$120
     00014490  A$map$120 |    00014490  C$map.c$1 |    00014492  A$map$121
     00014494  A$map$121 |    00014494  C$map.c$1 |    00014496  A$map$121
     00014498  A$map$122 |    00014498  C$map.c$1 |    0001449A  A$map$122
     0001449C  A$map$122 |    0001449C  C$map.c$1 |    0001449E  A$map$122
     000144A0  A$map$123 |    000144A0  C$map.c$1 |    000144A0  C$map.c$1
     000144A2  A$map$123 |    000144A3  A$map$123 |    000144A4  A$map$123
     000144A6  A$map$124 |    000144A6  C$map.c$1 |    000144A8  A$map$124
     000144AA  A$map$124 |    000144AC  A$map$124 |    000144AD  A$map$124
ASxxxx Linker V03.00/V05.40 + sdld,  page 52.
Hexadecimal  [32-Bits]

Area                       Addr        Size        Decimal Bytes (Attributes)
--------------------       ----        ----        ------- ----- ------------
_CODE_1                00014000    00001571 =        5489. bytes (REL,CON)

        Value  Global            Value  Global            Value  Global    
        -----  ------            -----  ------            -----  ------    
     000144AE  A$map$124 |    000144B0  A$map$125 |    000144B3  A$map$125
     000144B5  A$map$125 |    000144B8  A$map$125 |    000144BA  A$map$125
     000144BA  C$map.c$1 |    000144BC  A$map$126 |    000144BD  A$map$126
     000144BF  A$map$126 |    000144C0  A$map$126 |    000144C2  A$map$126
     000144C3  A$map$126 |    000144C5  A$map$126 |    000144C6  A$map$126
     000144C7  A$map$126 |    000144C8  A$map$126 |    000144C9  A$map$127
     000144CA  A$map$127 |    000144CC  A$map$127 |    000144CD  A$map$127
     000144CE  A$map$127 |    000144CF  A$map$127 |    000144D1  A$map$127
     000144D2  A$map$127 |    000144D3  A$map$127 |    000144D5  A$map$128
     000144D5  C$map.c$1 |    000144D7  A$map$128 |    000144D9  A$map$129
     000144D9  C$map.c$1 |    000144DB  A$map$129 |    000144DB  C$map.c$1
     000144DD  A$map$129 |    000144DE  A$map$129 |    000144E0  A$map$129
     000144E1  A$map$130 |    000144E3  A$map$130 |    000144E4  A$map$130
     000144E5  A$map$130 |    000144E7  A$map$130 |    000144E8  A$map$130
     000144E9  A$map$130 |    000144EA  A$map$131 |    000144EB  A$map$131
     000144EE  A$map$131 |    000144EF  A$map$131 |    000144F0  A$map$131
     000144F1  A$map$131 |    000144F2  A$map$131 |    000144F3  A$map$131
     000144F5  A$map$131 |    000144F6  A$map$132 |    000144F7  A$map$132
     000144F8  A$map$132 |    000144F9  A$map$132 |    000144FB  A$map$132
     000144FC  A$map$132 |    000144FD  A$map$132 |    000144FF  A$map$132
     00014500  A$map$132 |    00014501  A$map$133 |    00014503  A$map$133
     00014504  A$map$133 |    00014505  A$map$133 |    00014508  A$map$133
     00014509  A$map$133 |    0001450A  A$map$133 |    0001450B  A$map$133
     0001450D  A$map$133 |    0001450E  A$map$134 |    0001450F  A$map$134
     00014510  A$map$134 |    00014511  A$map$134 |    00014512  A$map$134
     00014513  A$map$134 |    00014513  C$map.c$1 |    00014515  A$map$134
     00014516  A$map$135 |    00014519  A$map$135 |    00014519  C$map.c$1
     0001451B  A$map$135 |    0001451C  A$map$135 |    0001451E  A$map$135
     0001451F  A$map$136 |    0001451F  C$map.c$1 |    0001451F  G$draw_de
     0001451F  _draw_dep |    00014521  A$map$137 |    00014521  C$map.c$2
     00014524  A$map$137 |    00014525  A$map$137 |    00014526  A$map$137
     00014527  A$map$137 |    00014529  A$map$137 |    0001452C  A$map$137
     0001452D  A$map$137 |    0001452F  A$map$138 |    00014532  A$map$138
     00014534  A$map$138 |    00014537  A$map$138 |    00014539  A$map$138
     0001453B  A$map$138 |    0001453C  A$map$138 |    0001453D  A$map$138
     0001453F  A$map$138 |    00014540  A$map$139 |    00014542  A$map$139
     00014543  A$map$139 |    00014544  A$map$139 |    00014545  A$map$139
     00014546  A$map$139 |    00014549  A$map$139 |    0001454B  A$map$140
     0001454B  C$map.c$2 |    0001454E  A$map$140 |    00014551  A$map$140
     00014552  A$map$140 |    00014553  A$map$140 |    00014554  A$map$140
     00014557  A$map$141 |    00014557  C$map.c$2 |    00014558  A$map$141
     00014559  A$map$141 |    0001455B  A$map$141 |    0001455C  A$map$141
     0001455E  A$map$141 |    0001455F  A$map$141 |    00014560  A$map$141
     00014563  A$map$141 |    00014564  A$map$141 |    00014566  A$map$142
     00014568  A$map$142 |    0001456B  A$map$142 |    0001456B  C$map.c$2
     0001456E  A$map$142 |    0001456F  A$map$142 |    00014570  A$map$142
     00014571  A$map$142 |    00014572  A$map$143 |    00014573  A$map$143
     00014575  A$map$143 |    00014576  A$map$143 |    00014577  A$map$143
     00014578  A$map$143 |    0001457A  A$map$143 |    0001457C  A$map$143
     0001457F  A$map$144 |    00014581  A$map$144 |    00014581  C$map.c$2
     00014581  XG$draw_d |    00014582  Fmap$__st |    00014584  Fmap$__st
ASxxxx Linker V03.00/V05.40 + sdld,  page 53.
Hexadecimal  [32-Bits]

Area                       Addr        Size        Decimal Bytes (Attributes)
--------------------       ----        ----        ------- ----- ------------
_CODE_1                00014000    00001571 =        5489. bytes (REL,CON)

        Value  Global            Value  Global            Value  Global    
        -----  ------            -----  ------            -----  ------    
     0001458A  A$map$146 |    0001458A  C$map.c$2 |    0001458A  G$draw_ca
     0001458A  _draw_car |    0001458C  A$map$146 |    0001458C  C$map.c$2
     0001458F  A$map$146 |    00014590  A$map$147 |    00014591  A$map$147
     00014592  A$map$147 |    00014594  A$map$147 |    00014595  A$map$147
     00014596  A$map$147 |    00014599  A$map$147 |    0001459A  A$map$147
     0001459B  A$map$147 |    0001459C  A$map$147 |    0001459F  A$map$148
     000145A1  A$map$148 |    000145A1  C$map.c$2 |    000145A4  A$map$148
     000145A5  A$map$148 |    000145A6  A$map$148 |    000145A7  A$map$148
     000145A9  A$map$148 |    000145AA  A$map$149 |    000145AB  A$map$149
     000145AE  A$map$149 |    000145AF  A$map$149 |    000145B0  A$map$149
     000145B1  A$map$149 |    000145B4  A$map$149 |    000145B6  A$map$150
     000145B6  C$map.c$2 |    000145B9  A$map$150 |    000145BC  A$map$150
     000145BD  A$map$150 |    000145BE  A$map$150 |    000145BF  A$map$150
     000145C2  A$map$150 |    000145C2  C$map.c$2 |    000145C5  A$map$151
     000145C6  A$map$151 |    000145C7  A$map$151 |    000145C8  A$map$151
     000145CB  A$map$151 |    000145CC  A$map$151 |    000145CD  A$map$151
     000145CE  A$map$151 |    000145D1  A$map$152 |    000145D1  C$map.c$2
     000145D2  A$map$152 |    000145D3  A$map$152 |    000145D5  A$map$152
     000145D6  A$map$152 |    000145D8  A$map$152 |    000145D9  A$map$152
     000145DA  A$map$152 |    000145DD  A$map$152 |    000145DE  A$map$153
     000145E0  A$map$153 |    000145E2  A$map$153 |    000145E5  A$map$153
     000145E5  C$map.c$2 |    000145E8  A$map$153 |    000145E9  A$map$153
     000145EA  A$map$153 |    000145EB  A$map$154 |    000145ED  A$map$154
     000145EE  A$map$154 |    000145F0  A$map$154 |    000145F1  A$map$154
     000145F2  A$map$154 |    000145F3  A$map$154 |    000145F5  A$map$154
     000145F7  A$map$154 |    000145FA  A$map$155 |    000145FC  A$map$155
     000145FC  C$map.c$2 |    000145FC  XG$draw_c |    000145FD  Fmap$__st
     000145FF  Fmap$__st |    00014605  A$map$157 |    00014605  C$map.c$2
     00014605  C$map.c$2 |    00014605  G$draw_fu |    00014605  _draw_fue
     00014608  A$map$157 |    00014609  A$map$158 |    0001460A  A$map$158
     0001460B  A$map$158 |    0001460E  A$map$158 |    0001460F  A$map$158
     00014610  A$map$158 |    00014611  A$map$158 |    00014614  A$map$159
     00014615  A$map$159 |    00014618  A$map$159 |    00014619  A$map$159
     0001461A  A$map$159 |    0001461B  A$map$159 |    0001461E  A$map$160
     0001461E  C$map.c$2 |    0001461E  XG$draw_f |    0001461F  A$map$161
     0001461F  C$map.c$2 |    0001461F  C$map.c$2 |    0001461F  G$draw_hu
     0001461F  _draw_hul |    00014622  A$map$161 |    00014623  A$map$161
     00014624  A$map$161 |    00014625  A$map$162 |    00014628  A$map$162
     00014629  A$map$162 |    0001462A  A$map$162 |    0001462B  A$map$162
     0001462E  A$map$162 |    0001462F  A$map$162 |    00014632  A$map$163
     00014633  A$map$163 |    00014634  A$map$163 |    00014635  A$map$163
     00014638  A$map$164 |    00014638  C$map.c$2 |    00014638  XG$draw_h
     00014639  A$map$165 |    00014639  C$map.c$2 |    00014639  C$map.c$2
     00014639  G$draw_ch |    00014639  _draw_cha |    0001463C  A$map$165
     0001463D  A$map$165 |    00014640  A$map$165 |    00014641  A$map$165
     00014644  A$map$165 |    00014646  A$map$166 |    00014646  C$map.c$2
     00014649  A$map$166 |    0001464A  A$map$167 |    0001464A  C$map.c$2
     0001464A  XG$draw_c |    0001464D  A$map$168 |    0001464D  C$map.c$2
     0001464D  C$map.c$2 |    0001464D  G$init_na |    0001464D  _init_nav
     00014650  A$map$168 |    00014651  A$map$168 |    00014654  A$map$168
     00014655  A$map$168 |    00014656  A$map$169 |    00014657  A$map$169
ASxxxx Linker V03.00/V05.40 + sdld,  page 54.
Hexadecimal  [32-Bits]

Area                       Addr        Size        Decimal Bytes (Attributes)
--------------------       ----        ----        ------- ----- ------------
_CODE_1                00014000    00001571 =        5489. bytes (REL,CON)

        Value  Global            Value  Global            Value  Global    
        -----  ------            -----  ------            -----  ------    
     00014658  A$map$169 |    0001465B  A$map$169 |    0001465D  A$map$169
     0001465F  A$map$169 |    00014661  A$map$169 |    00014662  A$map$169
     00014664  A$map$170 |    00014664  C$map.c$2 |    00014664  C$map.c$2
     00014664  XG$init_n |    00014665  A$map$172 |    00014665  C$map.c$2
     00014665  C$map.c$2 |    00014665  G$init_ti |    00014665  _init_til
     00014668  A$map$172 |    00014669  A$map$172 |    0001466C  A$map$172
     0001466D  A$map$172 |    00014670  A$map$172 |    00014672  A$map$173
     00014672  C$map.c$2 |    00014675  A$map$173 |    00014676  A$map$173
     00014679  A$map$173 |    0001467A  A$map$173 |    0001467D  A$map$173
     0001467F  A$map$174 |    0001467F  C$map.c$2 |    00014682  A$map$174
     00014683  A$map$174 |    00014684  A$map$174 |    00014685  A$map$174
     00014686  A$map$174 |    00014687  A$map$174 |    0001468A  A$map$174
     0001468D  A$map$175 |    0001468D  C$map.c$2 |    0001468D  XG$init_t
     0001468E  A$map$176 |    0001468E  C$map.c$2 |    0001468E  C$map.c$2
     0001468E  G$init_pr |    0001468E  _init_pro |    00014691  A$map$176
     00014692  A$map$177 |    00014695  A$map$177 |    00014696  A$map$177
     00014699  A$map$177 |    0001469B  A$map$177 |    0001469B  C$map.c$2
     0001469E  A$map$177 |    0001469F  A$map$177 |    000146A0  A$map$178
     000146A1  A$map$178 |    000146A4  A$map$178 |    000146A5  A$map$178
     000146A6  A$map$178 |    000146A7  A$map$178 |    000146AA  A$map$178
     000146AB  A$map$179 |    000146AE  A$map$179 |    000146AF  A$map$179
     000146B0  A$map$179 |    000146B1  A$map$179 |    000146B4  A$map$180
     000146B4  C$map.c$2 |    000146B4  XG$init_p |    000146B5  A$player$
     000146B5  C$player. |    000146B5  C$player. |    000146B5  C$player.
     000146B5  G$__func_ |    000146B5  G$init_ch |    000146B5  ___func_b
     000146B5  _init_cha |    000146B8  A$player$ |    000146BA  A$player$
     000146BA  C$player. |    000146BD  A$player$ |    000146C0  A$player$
     000146C0  C$player. |    000146C3  A$player$ |    000146C6  A$player$
     000146C9  A$player$ |    000146CA  A$player$ |    000146CC  A$player$
     000146CE  A$player$ |    000146D0  A$player$ |    000146D1  A$player$
     000146D1  C$player. |    000146D4  A$player$ |    000146D7  A$player$
     000146DA  A$player$ |    000146DB  A$player$ |    000146DD  A$player$
     000146DF  A$player$ |    000146E1  A$player$ |    000146E2  A$player$
     000146E2  C$player. |    000146E5  A$player$ |    000146E8  A$player$
     000146EA  A$player$ |    000146EC  A$player$ |    000146ED  A$player$
     000146ED  C$player. |    000146F0  A$player$ |    000146F3  A$player$
     000146F5  A$player$ |    000146F7  A$player$ |    000146F8  A$player$
     000146F8  C$player. |    000146F8  XG$init_c |    000146F9  G$rover_m
     000146F9  _rover_me |    0001470D  G$drill_h |    0001470D  _drill_ho
     00014719  G$drill_v |    00014719  _drill_ve |    00014725  A$player$
     00014725  C$player. |    00014725  C$player. |    00014725  G$init_sp
     00014725  _init_spe |    00014728  A$player$ |    00014729  A$player$
     0001472A  A$player$ |    0001472B  A$player$ |    0001472B  C$player.
     0001472E  A$player$ |    0001472F  A$player$ |    00014730  A$player$
     00014731  A$player$ |    00014731  C$player. |    00014734  A$player$
     00014735  A$player$ |    00014736  A$player$ |    00014737  A$player$
     00014737  C$player. |    0001473A  A$player$ |    0001473B  A$player$
     0001473C  A$player$ |    0001473D  A$player$ |    0001473D  C$player.
     00014740  A$player$ |    00014741  A$player$ |    00014742  A$player$
     00014743  A$player$ |    00014743  C$player. |    00014746  A$player$
     00014747  A$player$ |    00014748  A$player$ |    00014749  A$player$
ASxxxx Linker V03.00/V05.40 + sdld,  page 55.
Hexadecimal  [32-Bits]

Area                       Addr        Size        Decimal Bytes (Attributes)
--------------------       ----        ----        ------- ----- ------------
_CODE_1                00014000    00001571 =        5489. bytes (REL,CON)

        Value  Global            Value  Global            Value  Global    
        -----  ------            -----  ------            -----  ------    
     00014749  C$player. |    00014749  XG$init_s |    0001474A  A$player$
     0001474A  C$player. |    0001474A  C$player. |    0001474A  G$check_s
     0001474A  _check_su |    0001474D  A$player$ |    0001474E  A$player$
     00014750  A$player$ |    00014751  A$player$ |    00014752  A$player$
     00014753  A$player$ |    00014754  A$player$ |    00014755  A$player$
     00014756  A$player$ |    00014757  A$player$ |    0001475A  A$player$
     0001475B  A$player$ |    0001475C  A$player$ |    0001475F  A$player$
     00014760  A$player$ |    00014761  A$player$ |    00014763  A$player$
     00014764  A$player$ |    00014765  A$player$ |    00014768  A$player$
     00014768  C$player. |    00014769  A$player$ |    0001476A  A$player$
     0001476B  A$player$ |    0001476C  A$player$ |    0001476D  A$player$
     0001476E  A$player$ |    0001476F  A$player$ |    00014770  A$player$
     00014773  A$player$ |    00014774  A$player$ |    00014775  A$player$
     00014777  A$player$ |    00014778  A$player$ |    00014779  A$player$
     0001477C  A$player$ |    0001477C  C$player. |    0001477D  A$player$
     0001477E  A$player$ |    0001477F  A$player$ |    00014780  A$player$
     00014781  A$player$ |    00014782  A$player$ |    00014783  A$player$
     00014785  A$player$ |    00014786  A$player$ |    00014787  A$player$
     00014789  A$player$ |    0001478A  A$player$ |    0001478D  A$player$
     0001478E  A$player$ |    0001478F  A$player$ |    00014790  A$player$
     00014792  A$player$ |    00014793  A$player$ |    00014794  A$player$
     00014797  A$player$ |    00014797  C$player. |    00014798  A$player$
     00014799  A$player$ |    0001479B  A$player$ |    0001479C  A$player$
     0001479D  A$player$ |    000147A0  A$player$ |    000147A0  C$player.
     000147A0  XG$check_ |    000147A1  A$player$ |    000147A1  C$player.
     000147A1  G$metaspr |    000147A1  _metaspri |    000147A2  A$player$
     000147A5  A$player$ |    000147A7  A$player$ |    000147A8  A$player$
     000147AA  A$player$ |    000147AB  A$player$ |    000147AD  A$player$
     000147B0  A$player$ |    000147B1  A$player$ |    000147B2  A$player$
     000147B3  A$player$ |    000147B5  A$player$ |    000147B8  A$player$
     000147B9  A$player$ |    000147BC  A$player$ |    000147BD  A$player$
     000147BE  A$player$ |    000147C1  A$player$ |    000147C3  A$player$
     000147C4  A$player$ |    000147C6  A$player$ |    000147C9  A$player$
     000147CB  A$player$ |    000147CE  A$player$ |    000147D0  A$player$
     000147D1  A$player$ |    000147D2  A$player$ |    000147D3  A$player$
     000147D4  A$player$ |    000147D5  A$player$ |    000147D6  A$player$
     000147D8  A$player$ |    000147DB  A$player$ |    000147DC  A$player$
     000147DC  C$player. |    000147DD  A$player$ |    000147DF  A$player$
     000147E0  A$player$ |    000147E3  A$player$ |    000147E4  A$player$
     000147E7  A$player$ |    000147E8  A$player$ |    000147EB  A$player$
     000147ED  A$player$ |    000147EE  A$player$ |    000147F0  A$player$
     000147F3  A$player$ |    000147F5  A$player$ |    000147F8  A$player$
     000147FA  A$player$ |    000147FB  A$player$ |    000147FD  A$player$
     000147FE  A$player$ |    00014800  A$player$ |    00014802  A$player$
     00014803  A$player$ |    00014804  A$player$ |    00014806  A$player$
     00014806  C$player. |    00014806  C$player. |    00014806  XG$metasp
     00014809  A$player$ |    00014809  C$player. |    00014809  G$metaspr
     00014809  _metaspri |    0001480A  A$player$ |    0001480D  A$player$
     0001480F  A$player$ |    00014810  A$player$ |    00014812  A$player$
     00014813  A$player$ |    00014815  A$player$ |    00014818  A$player$
     00014819  A$player$ |    0001481A  A$player$ |    0001481C  A$player$
ASxxxx Linker V03.00/V05.40 + sdld,  page 56.
Hexadecimal  [32-Bits]

Area                       Addr        Size        Decimal Bytes (Attributes)
--------------------       ----        ----        ------- ----- ------------
_CODE_1                00014000    00001571 =        5489. bytes (REL,CON)

        Value  Global            Value  Global            Value  Global    
        -----  ------            -----  ------            -----  ------    
     0001481D  A$player$ |    00014820  A$player$ |    00014821  A$player$
     00014824  A$player$ |    00014825  A$player$ |    00014826  A$player$
     00014829  A$player$ |    0001482B  A$player$ |    0001482C  A$player$
     0001482E  A$player$ |    00014831  A$player$ |    00014833  A$player$
     00014836  A$player$ |    00014838  A$player$ |    00014839  A$player$
     0001483A  A$player$ |    0001483B  A$player$ |    0001483C  A$player$
     0001483D  A$player$ |    0001483F  A$player$ |    0001483F  C$player.
     0001483F  C$player. |    0001483F  XG$metasp |    00014842  A$player$
     00014842  C$player. |    00014842  G$metaspr |    00014842  _metaspri
     00014843  A$player$ |    00014845  A$player$ |    00014846  A$player$
     00014849  A$player$ |    0001484B  A$player$ |    0001484C  A$player$
     0001484E  A$player$ |    00014850  A$player$ |    00014853  A$player$
     00014856  A$player$ |    00014858  A$player$ |    00014859  A$player$
     0001485B  A$player$ |    0001485D  A$player$ |    00014860  A$player$
     00014862  A$player$ |    00014863  A$player$ |    00014864  A$player$
     00014866  A$player$ |    00014869  A$player$ |    0001486A  A$player$
     0001486D  A$player$ |    0001486E  A$player$ |    0001486F  A$player$
     00014872  A$player$ |    00014874  A$player$ |    00014875  A$player$
     00014877  A$player$ |    0001487A  A$player$ |    0001487C  A$player$
     0001487F  A$player$ |    00014880  A$player$ |    00014881  A$player$
     00014882  A$player$ |    00014883  A$player$ |    00014884  A$player$
     00014885  A$player$ |    00014888  A$player$ |    00014888  C$player.
     0001488A  A$player$ |    0001488B  A$player$ |    0001488D  A$player$
     0001488F  A$player$ |    00014892  A$player$ |    00014893  A$player$
     00014896  A$player$ |    00014897  A$player$ |    0001489A  A$player$
     0001489C  A$player$ |    0001489D  A$player$ |    0001489F  A$player$
     000148A2  A$player$ |    000148A4  A$player$ |    000148A7  A$player$
     000148A9  A$player$ |    000148AA  A$player$ |    000148AC  A$player$
     000148AD  A$player$ |    000148AF  A$player$ |    000148B1  A$player$
     000148B2  A$player$ |    000148B3  A$player$ |    000148B4  A$player$
     000148B5  A$player$ |    000148B8  A$player$ |    000148B8  C$player.
     000148B9  A$player$ |    000148B9  C$player. |    000148B9  XG$metasp
     000148BA  A$player$ |    000148BA  C$player. |    000148BA  C$player.
     000148BA  G$draw_me |    000148BA  _draw_met |    000148BB  A$player$
     000148BC  A$player$ |    000148BE  A$player$ |    000148BF  A$player$
     000148C1  A$player$ |    000148C3  A$player$ |    000148C3  C$player.
     000148C4  A$player$ |    000148C5  A$player$ |    000148C8  A$player$
     000148C9  A$player$ |    000148C9  C$player. |    000148CC  A$player$
     000148CD  A$player$ |    000148CE  A$player$ |    000148CF  A$player$
     000148D0  A$player$ |    000148D3  A$player$ |    000148D3  C$player.
     000148D4  A$player$ |    000148D6  A$player$ |    000148D8  A$player$
     000148DA  A$player$ |    000148DB  A$player$ |    000148DB  C$player.
     000148DC  A$player$ |    000148DF  A$player$ |    000148E2  A$player$
     000148E3  A$player$ |    000148E3  C$player. |    000148E6  A$player$
     000148E7  A$player$ |    000148E8  A$player$ |    000148E9  A$player$
     000148EA  A$player$ |    000148EA  C$player. |    000148EA  XG$draw_m
     000148ED  A$player$ |    000148ED  C$player. |    000148ED  C$player.
     000148ED  G$update_ |    000148ED  _update_m |    000148F0  A$player$
     000148F1  A$player$ |    000148F2  A$player$ |    000148F2  C$player.
     000148F5  A$player$ |    000148F6  A$player$ |    000148F7  A$player$
     000148F8  A$player$ |    000148FB  A$player$ |    000148FC  A$player$
ASxxxx Linker V03.00/V05.40 + sdld,  page 57.
Hexadecimal  [32-Bits]

Area                       Addr        Size        Decimal Bytes (Attributes)
--------------------       ----        ----        ------- ----- ------------
_CODE_1                00014000    00001571 =        5489. bytes (REL,CON)

        Value  Global            Value  Global            Value  Global    
        -----  ------            -----  ------            -----  ------    
     000148FD  A$player$ |    000148FE  A$player$ |    000148FF  A$player$
     00014900  A$player$ |    00014901  A$player$ |    00014904  A$player$
     00014905  A$player$ |    00014906  A$player$ |    00014907  A$player$
     00014907  C$player. |    0001490A  A$player$ |    0001490B  A$player$
     0001490C  A$player$ |    0001490D  A$player$ |    00014910  A$player$
     00014911  A$player$ |    00014912  A$player$ |    00014913  A$player$
     00014914  A$player$ |    00014915  A$player$ |    00014916  A$player$
     00014919  A$player$ |    0001491A  A$player$ |    0001491B  A$player$
     0001491C  A$player$ |    0001491C  C$player. |    0001491F  A$player$
     00014920  A$player$ |    00014921  A$player$ |    00014922  A$player$
     00014925  A$player$ |    00014926  A$player$ |    00014927  A$player$
     00014928  A$player$ |    00014929  A$player$ |    0001492A  A$player$
     0001492B  A$player$ |    0001492E  A$player$ |    0001492F  A$player$
     00014930  A$player$ |    00014931  A$player$ |    00014931  C$player.
     00014934  A$player$ |    00014935  A$player$ |    00014936  A$player$
     00014937  A$player$ |    0001493A  A$player$ |    0001493B  A$player$
     0001493C  A$player$ |    0001493D  A$player$ |    0001493E  A$player$
     0001493F  A$player$ |    00014940  A$player$ |    00014943  A$player$
     00014944  A$player$ |    00014945  A$player$ |    00014946  A$player$
     00014946  C$player. |    00014949  A$player$ |    0001494C  A$player$
     0001494F  A$player$ |    00014950  A$player$ |    00014953  A$player$
     00014955  A$player$ |    00014956  A$player$ |    00014958  A$player$
     00014958  C$player. |    0001495B  A$player$ |    0001495C  A$player$
     0001495C  C$player. |    0001495D  A$player$ |    0001495F  A$player$
     00014962  A$player$ |    00014965  A$player$ |    00014966  A$player$
     00014967  A$player$ |    00014969  A$player$ |    00014969  C$player.
     0001496C  A$player$ |    0001496D  A$player$ |    0001496E  A$player$
     0001496F  A$player$ |    00014970  A$player$ |    00014973  A$player$
     00014974  A$player$ |    00014975  A$player$ |    00014976  A$player$
     00014976  C$player. |    00014979  A$player$ |    0001497A  A$player$
     0001497B  A$player$ |    0001497B  C$player. |    0001497E  A$player$
     0001497F  A$player$ |    00014980  A$player$ |    00014981  A$player$
     00014981  C$player. |    00014984  A$player$ |    00014985  A$player$
     00014986  A$player$ |    00014987  A$player$ |    00014987  C$player.
     0001498A  A$player$ |    0001498B  A$player$ |    0001498C  A$player$
     0001498D  A$player$ |    0001498D  C$player. |    00014990  A$player$
     00014991  A$player$ |    00014992  A$player$ |    00014993  A$player$
     00014993  C$player. |    00014996  A$player$ |    00014999  A$player$
     0001499A  A$player$ |    0001499C  A$player$ |    0001499E  A$player$
     000149A0  A$player$ |    000149A3  A$player$ |    000149A6  A$player$
     000149A8  A$player$ |    000149A8  C$player. |    000149AB  A$player$
     000149AE  A$player$ |    000149B1  A$player$ |    000149B2  A$player$
     000149B4  A$player$ |    000149B6  A$player$ |    000149B8  A$player$
     000149B9  A$player$ |    000149BC  A$player$ |    000149BE  A$player$
     000149BE  C$player. |    000149C1  A$player$ |    000149C3  A$player$
     000149C5  A$player$ |    000149C8  A$player$ |    000149CB  A$player$
     000149CD  A$player$ |    000149CD  C$player. |    000149D0  A$player$
     000149D2  A$player$ |    000149D4  A$player$ |    000149D7  A$player$
     000149DA  A$player$ |    000149DC  A$player$ |    000149DC  C$player.
     000149DF  A$player$ |    000149E2  A$player$ |    000149E2  C$player.
     000149E5  A$player$ |    000149E8  A$player$ |    000149E9  A$player$
ASxxxx Linker V03.00/V05.40 + sdld,  page 58.
Hexadecimal  [32-Bits]

Area                       Addr        Size        Decimal Bytes (Attributes)
--------------------       ----        ----        ------- ----- ------------
_CODE_1                00014000    00001571 =        5489. bytes (REL,CON)

        Value  Global            Value  Global            Value  Global    
        -----  ------            -----  ------            -----  ------    
     000149EB  A$player$ |    000149ED  A$player$ |    000149EF  A$player$
     000149F2  A$player$ |    000149F2  C$player. |    000149F5  A$player$
     000149F8  A$player$ |    000149F9  A$player$ |    000149FB  A$player$
     000149FD  A$player$ |    000149FF  A$player$ |    00014A00  A$player$
     00014A00  C$player. |    00014A03  A$player$ |    00014A05  A$player$
     00014A07  A$player$ |    00014A0A  A$player$ |    00014A0A  C$player.
     00014A0D  A$player$ |    00014A0F  A$player$ |    00014A11  A$player$
     00014A14  A$player$ |    00014A14  C$player. |    00014A17  A$player$
     00014A19  A$player$ |    00014A19  C$player. |    00014A1C  A$player$
     00014A1F  A$player$ |    00014A20  A$player$ |    00014A22  A$player$
     00014A23  A$player$ |    00014A24  A$player$ |    00014A25  A$player$
     00014A26  A$player$ |    00014A27  A$player$ |    00014A28  A$player$
     00014A29  A$player$ |    00014A2C  A$player$ |    00014A2D  A$player$
     00014A2F  A$player$ |    00014A30  A$player$ |    00014A31  A$player$
     00014A32  A$player$ |    00014A34  A$player$ |    00014A34  C$player.
     00014A37  A$player$ |    00014A39  A$player$ |    00014A39  C$player.
     00014A3C  A$player$ |    00014A3F  A$player$ |    00014A42  A$player$
     00014A45  A$player$ |    00014A46  A$player$ |    00014A47  A$player$
     00014A49  A$player$ |    00014A4A  A$player$ |    00014A4C  A$player$
     00014A4C  C$player. |    00014A4C  C$player. |    00014A4C  XG$update
     00014A4D  A$player$ |    00014A4D  C$player. |    00014A4D  C$player.
     00014A4D  G$calcula |    00014A4D  _calculat |    00014A50  A$player$
     00014A51  A$player$ |    00014A53  A$player$ |    00014A54  A$player$
     00014A55  A$player$ |    00014A56  A$player$ |    00014A57  A$player$
     00014A58  A$player$ |    00014A59  A$player$ |    00014A5C  A$player$
     00014A5D  A$player$ |    00014A5E  A$player$ |    00014A5F  A$player$
     00014A60  A$player$ |    00014A61  A$player$ |    00014A64  A$player$
     00014A65  A$player$ |    00014A66  A$player$ |    00014A67  A$player$
     00014A68  A$player$ |    00014A6A  A$player$ |    00014A6B  A$player$
     00014A6E  A$player$ |    00014A71  A$player$ |    00014A72  A$player$
     00014A72  C$player. |    00014A72  C$player. |    00014A72  XG$calcul
     00014A73  A$player$ |    00014A73  C$player. |    00014A73  G$calcula
     00014A73  _calculat |    00014A74  A$player$ |    00014A75  A$player$
     00014A76  A$player$ |    00014A76  C$player. |    00014A78  A$player$
     00014A7B  A$player$ |    00014A7E  A$player$ |    00014A7F  A$player$
     00014A80  A$player$ |    00014A80  C$player. |    00014A82  A$player$
     00014A83  A$player$ |    00014A84  A$player$ |    00014A85  A$player$
     00014A87  A$player$ |    00014A88  A$player$ |    00014A89  A$player$
     00014A8A  A$player$ |    00014A8B  A$player$ |    00014A8C  A$player$
     00014A8C  C$player. |    00014A8D  A$player$ |    00014A8E  A$player$
     00014A8F  A$player$ |    00014A90  A$player$ |    00014A91  A$player$
     00014A91  C$player. |    00014A91  G$move_le |    00014A91  _move_lef
     00014A93  A$player$ |    00014A95  A$player$ |    00014A96  A$player$
     00014A96  C$player. |    00014A97  A$player$ |    00014A99  A$player$
     00014A9A  A$player$ |    00014A9D  A$player$ |    00014A9F  A$player$
     00014AA0  A$player$ |    00014AA1  A$player$ |    00014AA4  A$player$
     00014AA5  A$player$ |    00014AA8  A$player$ |    00014AAB  A$player$
     00014AAE  A$player$ |    00014AB0  A$player$ |    00014AB3  A$player$
     00014AB4  A$player$ |    00014AB6  A$player$ |    00014AB7  A$player$
     00014AB8  A$player$ |    00014AB9  A$player$ |    00014ABA  A$player$
     00014ABB  A$player$ |    00014ABB  C$player. |    00014ABE  A$player$
ASxxxx Linker V03.00/V05.40 + sdld,  page 59.
Hexadecimal  [32-Bits]

Area                       Addr        Size        Decimal Bytes (Attributes)
--------------------       ----        ----        ------- ----- ------------
_CODE_1                00014000    00001571 =        5489. bytes (REL,CON)

        Value  Global            Value  Global            Value  Global    
        -----  ------            -----  ------            -----  ------    
     00014ABF  A$player$ |    00014AC0  A$player$ |    00014AC0  C$player.
     00014AC1  A$player$ |    00014AC3  A$player$ |    00014AC4  A$player$
     00014AC6  A$player$ |    00014AC8  A$player$ |    00014AC9  A$player$
     00014ACB  A$player$ |    00014ACB  C$player. |    00014ACE  A$player$
     00014ACF  A$player$ |    00014ACF  C$player. |    00014AD2  A$player$
     00014AD3  A$player$ |    00014AD3  C$player. |    00014AD6  A$player$
     00014AD7  A$player$ |    00014AD8  A$player$ |    00014AD9  A$player$
     00014ADA  A$player$ |    00014ADB  A$player$ |    00014ADC  A$player$
     00014ADD  A$player$ |    00014ADE  A$player$ |    00014ADF  A$player$
     00014AE2  A$player$ |    00014AE3  A$player$ |    00014AE4  A$player$
     00014AE5  A$player$ |    00014AE7  A$player$ |    00014AE7  C$player.
     00014AEA  A$player$ |    00014AEB  A$player$ |    00014AEC  A$player$
     00014AEE  A$player$ |    00014AEE  C$player. |    00014AEF  A$player$
     00014AEF  C$player. |    00014AF2  A$player$ |    00014AF3  A$player$
     00014AF4  A$player$ |    00014AF5  A$player$ |    00014AF6  A$player$
     00014AF7  A$player$ |    00014AF8  A$player$ |    00014AF9  A$player$
     00014AFA  A$player$ |    00014AFB  A$player$ |    00014AFE  A$player$
     00014AFF  A$player$ |    00014B00  A$player$ |    00014B01  A$player$
     00014B01  C$player. |    00014B03  A$player$ |    00014B03  C$player.
     00014B05  A$player$ |    00014B06  A$player$ |    00014B09  A$player$
     00014B0B  A$player$ |    00014B0B  C$player. |    00014B0B  XG$move_l
     00014B0C  A$player$ |    00014B0C  C$player. |    00014B0C  G$move_ri
     00014B0C  _move_rig |    00014B0E  A$player$ |    00014B10  A$player$
     00014B11  A$player$ |    00014B11  C$player. |    00014B12  A$player$
     00014B14  A$player$ |    00014B15  A$player$ |    00014B18  A$player$
     00014B1A  A$player$ |    00014B1B  A$player$ |    00014B1C  A$player$
     00014B1F  A$player$ |    00014B20  A$player$ |    00014B23  A$player$
     00014B26  A$player$ |    00014B29  A$player$ |    00014B2B  A$player$
     00014B2E  A$player$ |    00014B2F  A$player$ |    00014B31  A$player$
     00014B32  A$player$ |    00014B33  A$player$ |    00014B34  A$player$
     00014B35  A$player$ |    00014B36  A$player$ |    00014B36  C$player.
     00014B39  A$player$ |    00014B3A  A$player$ |    00014B3B  A$player$
     00014B3B  C$player. |    00014B3C  A$player$ |    00014B3E  A$player$
     00014B3F  A$player$ |    00014B41  A$player$ |    00014B42  A$player$
     00014B44  A$player$ |    00014B46  A$player$ |    00014B46  C$player.
     00014B49  A$player$ |    00014B4A  A$player$ |    00014B4A  C$player.
     00014B4D  A$player$ |    00014B4E  A$player$ |    00014B4E  C$player.
     00014B51  A$player$ |    00014B52  A$player$ |    00014B53  A$player$
     00014B54  A$player$ |    00014B57  A$player$ |    00014B58  A$player$
     00014B59  A$player$ |    00014B5A  A$player$ |    00014B5C  A$player$
     00014B5C  C$player. |    00014B5F  A$player$ |    00014B60  A$player$
     00014B62  A$player$ |    00014B64  A$player$ |    00014B64  C$player.
     00014B65  A$player$ |    00014B65  C$player. |    00014B68  A$player$
     00014B69  A$player$ |    00014B6A  A$player$ |    00014B6B  A$player$
     00014B6E  A$player$ |    00014B6F  A$player$ |    00014B70  A$player$
     00014B71  A$player$ |    00014B71  C$player. |    00014B73  A$player$
     00014B73  C$player. |    00014B75  A$player$ |    00014B76  A$player$
     00014B79  A$player$ |    00014B7B  A$player$ |    00014B7B  C$player.
     00014B7B  XG$move_r |    00014B7C  A$player$ |    00014B7C  C$player.
     00014B7C  G$move_up |    00014B7C  _move_up  |    00014B7E  A$player$
     00014B80  A$player$ |    00014B81  A$player$ |    00014B81  C$player.
ASxxxx Linker V03.00/V05.40 + sdld,  page 60.
Hexadecimal  [32-Bits]

Area                       Addr        Size        Decimal Bytes (Attributes)
--------------------       ----        ----        ------- ----- ------------
_CODE_1                00014000    00001571 =        5489. bytes (REL,CON)

        Value  Global            Value  Global            Value  Global    
        -----  ------            -----  ------            -----  ------    
     00014B82  A$player$ |    00014B84  A$player$ |    00014B85  A$player$
     00014B88  A$player$ |    00014B8A  A$player$ |    00014B8B  A$player$
     00014B8C  A$player$ |    00014B8F  A$player$ |    00014B90  A$player$
     00014B93  A$player$ |    00014B96  A$player$ |    00014B99  A$player$
     00014B9B  A$player$ |    00014B9E  A$player$ |    00014B9F  A$player$
     00014BA1  A$player$ |    00014BA2  A$player$ |    00014BA3  A$player$
     00014BA4  A$player$ |    00014BA5  A$player$ |    00014BA6  A$player$
     00014BA6  C$player. |    00014BA9  A$player$ |    00014BAA  A$player$
     00014BAB  A$player$ |    00014BAB  C$player. |    00014BAC  A$player$
     00014BAE  A$player$ |    00014BAF  A$player$ |    00014BB1  A$player$
     00014BB3  A$player$ |    00014BB4  A$player$ |    00014BB6  A$player$
     00014BB6  C$player. |    00014BB9  A$player$ |    00014BBA  A$player$
     00014BBA  C$player. |    00014BBD  A$player$ |    00014BBE  A$player$
     00014BBE  C$player. |    00014BC1  A$player$ |    00014BC2  A$player$
     00014BC3  A$player$ |    00014BC4  A$player$ |    00014BC5  A$player$
     00014BC6  A$player$ |    00014BC7  A$player$ |    00014BC8  A$player$
     00014BC9  A$player$ |    00014BCA  A$player$ |    00014BCD  A$player$
     00014BCE  A$player$ |    00014BCF  A$player$ |    00014BD0  A$player$
     00014BD2  A$player$ |    00014BD2  C$player. |    00014BD4  A$player$
     00014BD7  A$player$ |    00014BD8  A$player$ |    00014BDA  A$player$
     00014BDA  C$player. |    00014BDB  A$player$ |    00014BDB  C$player.
     00014BDE  A$player$ |    00014BDF  A$player$ |    00014BE0  A$player$
     00014BE1  A$player$ |    00014BE2  A$player$ |    00014BE3  A$player$
     00014BE4  A$player$ |    00014BE5  A$player$ |    00014BE6  A$player$
     00014BE7  A$player$ |    00014BEA  A$player$ |    00014BEB  A$player$
     00014BEC  A$player$ |    00014BED  A$player$ |    00014BED  C$player.
     00014BEF  A$player$ |    00014BEF  C$player. |    00014BF1  A$player$
     00014BF2  A$player$ |    00014BF5  A$player$ |    00014BF7  A$player$
     00014BF7  C$player. |    00014BF7  XG$move_u |    00014BF8  A$player$
     00014BF8  C$player. |    00014BF8  G$move_do |    00014BF8  _move_dow
     00014BFA  A$player$ |    00014BFC  A$player$ |    00014BFD  A$player$
     00014BFD  C$player. |    00014BFE  A$player$ |    00014C00  A$player$
     00014C01  A$player$ |    00014C04  A$player$ |    00014C06  A$player$
     00014C07  A$player$ |    00014C08  A$player$ |    00014C0B  A$player$
     00014C0C  A$player$ |    00014C0F  A$player$ |    00014C12  A$player$
     00014C15  A$player$ |    00014C17  A$player$ |    00014C1A  A$player$
     00014C1B  A$player$ |    00014C1D  A$player$ |    00014C1E  A$player$
     00014C1F  A$player$ |    00014C20  A$player$ |    00014C21  A$player$
     00014C22  A$player$ |    00014C22  C$player. |    00014C25  A$player$
     00014C26  A$player$ |    00014C27  A$player$ |    00014C27  C$player.
     00014C28  A$player$ |    00014C2A  A$player$ |    00014C2B  A$player$
     00014C2D  A$player$ |    00014C2E  A$player$ |    00014C30  A$player$
     00014C32  A$player$ |    00014C32  C$player. |    00014C35  A$player$
     00014C36  A$player$ |    00014C36  C$player. |    00014C39  A$player$
     00014C3A  A$player$ |    00014C3A  C$player. |    00014C3D  A$player$
     00014C3E  A$player$ |    00014C3F  A$player$ |    00014C40  A$player$
     00014C43  A$player$ |    00014C44  A$player$ |    00014C45  A$player$
     00014C46  A$player$ |    00014C48  A$player$ |    00014C48  C$player.
     00014C4B  A$player$ |    00014C4C  A$player$ |    00014C4E  A$player$
     00014C50  A$player$ |    00014C50  C$player. |    00014C51  A$player$
     00014C51  C$player. |    00014C54  A$player$ |    00014C55  A$player$
ASxxxx Linker V03.00/V05.40 + sdld,  page 61.
Hexadecimal  [32-Bits]

Area                       Addr        Size        Decimal Bytes (Attributes)
--------------------       ----        ----        ------- ----- ------------
_CODE_1                00014000    00001571 =        5489. bytes (REL,CON)

        Value  Global            Value  Global            Value  Global    
        -----  ------            -----  ------            -----  ------    
     00014C56  A$player$ |    00014C57  A$player$ |    00014C5A  A$player$
     00014C5B  A$player$ |    00014C5C  A$player$ |    00014C5D  A$player$
     00014C5D  C$player. |    00014C5F  A$player$ |    00014C5F  C$player.
     00014C61  A$player$ |    00014C62  A$player$ |    00014C65  A$player$
     00014C67  A$player$ |    00014C67  C$player. |    00014C67  XG$move_d
     00014C68  A$player$ |    00014C68  C$player. |    00014C68  G$move$0$
     00014C68  _move     |    00014C6A  A$player$ |    00014C6B  A$player$
     00014C6D  A$player$ |    00014C6E  A$player$ |    00014C6E  C$player.
     00014C71  A$player$ |    00014C71  C$player. |    00014C72  A$player$
     00014C73  A$player$ |    00014C74  A$player$ |    00014C76  A$player$
     00014C78  A$player$ |    00014C79  A$player$ |    00014C7B  A$player$
     00014C7C  A$player$ |    00014C7D  A$player$ |    00014C7F  A$player$
     00014C81  A$player$ |    00014C83  A$player$ |    00014C84  A$player$
     00014C86  A$player$ |    00014C87  A$player$ |    00014C88  A$player$
     00014C89  A$player$ |    00014C8B  A$player$ |    00014C8C  A$player$
     00014C8D  A$player$ |    00014C8E  A$player$ |    00014C90  A$player$
     00014C93  A$player$ |    00014C94  A$player$ |    00014C94  C$player.
     00014C96  A$player$ |    00014C98  A$player$ |    00014C98  C$player.
     00014C9B  A$player$ |    00014C9C  A$player$ |    00014C9F  A$player$
     00014C9F  C$player. |    00014CA0  A$player$ |    00014CA2  A$player$
     00014CA4  A$player$ |    00014CA6  A$player$ |    00014CA7  A$player$
     00014CA8  A$player$ |    00014CA8  C$player. |    00014CA9  A$player$
     00014CAB  A$player$ |    00014CAD  A$player$ |    00014CAF  A$player$
     00014CB0  A$player$ |    00014CB2  A$player$ |    00014CB2  C$player.
     00014CB3  A$player$ |    00014CB4  A$player$ |    00014CB5  A$player$
     00014CB7  A$player$ |    00014CB7  C$player. |    00014CBA  A$player$
     00014CBC  A$player$ |    00014CBC  C$player. |    00014CBF  A$player$
     00014CC1  A$player$ |    00014CC1  C$player. |    00014CC3  A$player$
     00014CC4  A$player$ |    00014CC5  A$player$ |    00014CC7  A$player$
     00014CCA  A$player$ |    00014CCD  A$player$ |    00014CCD  C$player.
     00014CCF  A$player$ |    00014CD0  A$player$ |    00014CD1  A$player$
     00014CD3  A$player$ |    00014CD6  A$player$ |    00014CD9  A$player$
     00014CD9  C$player. |    00014CDA  A$player$ |    00014CDB  A$player$
     00014CDD  A$player$ |    00014CE0  A$player$ |    00014CE3  A$player$
     00014CE3  C$player. |    00014CE5  A$player$ |    00014CE6  A$player$
     00014CE7  A$player$ |    00014CE9  A$player$ |    00014CEC  A$player$
     00014CEF  A$player$ |    00014CEF  C$player. |    00014CF0  A$player$
     00014CF3  A$player$ |    00014CF5  A$player$ |    00014CF6  A$player$
     00014CF7  A$player$ |    00014CFA  A$player$ |    00014CFA  C$player.
     00014CFC  A$player$ |    00014CFD  A$player$ |    00014CFF  A$player$
     00014D01  A$player$ |    00014D01  C$player. |    00014D04  A$player$
     00014D06  A$player$ |    00014D06  C$player. |    00014D08  A$player$
     00014D0A  A$player$ |    00014D0D  A$player$ |    00014D0D  C$player.
     00014D0F  A$player$ |    00014D10  A$player$ |    00014D12  A$player$
     00014D15  A$player$ |    00014D15  C$player. |    00014D18  A$player$
     00014D19  A$player$ |    00014D1B  A$player$ |    00014D1E  A$player$
     00014D20  A$player$ |    00014D20  C$player. |    00014D22  A$player$
     00014D23  A$player$ |    00014D24  A$player$ |    00014D26  A$player$
     00014D26  C$player. |    00014D29  A$player$ |    00014D2A  A$player$
     00014D2B  A$player$ |    00014D2B  C$player. |    00014D2D  A$player$
     00014D2F  A$player$ |    00014D2F  C$player. |    00014D31  A$player$
ASxxxx Linker V03.00/V05.40 + sdld,  page 62.
Hexadecimal  [32-Bits]

Area                       Addr        Size        Decimal Bytes (Attributes)
--------------------       ----        ----        ------- ----- ------------
_CODE_1                00014000    00001571 =        5489. bytes (REL,CON)

        Value  Global            Value  Global            Value  Global    
        -----  ------            -----  ------            -----  ------    
     00014D31  C$player. |    00014D32  A$player$ |    00014D32  C$player.
     00014D33  A$player$ |    00014D35  A$player$ |    00014D35  C$player.
     00014D38  A$player$ |    00014D39  A$player$ |    00014D3B  A$player$
     00014D3B  C$player. |    00014D3C  A$player$ |    00014D3D  A$player$
     00014D3F  A$player$ |    00014D3F  C$player. |    00014D42  A$player$
     00014D43  A$player$ |    00014D44  A$player$ |    00014D44  C$player.
     00014D45  A$player$ |    00014D46  A$player$ |    00014D47  A$player$
     00014D48  A$player$ |    00014D4A  A$player$ |    00014D4C  A$player$
     00014D4E  A$player$ |    00014D50  A$player$ |    00014D51  A$player$
     00014D53  A$player$ |    00014D55  A$player$ |    00014D57  A$player$
     00014D58  A$player$ |    00014D5A  A$player$ |    00014D5A  C$player.
     00014D5C  A$player$ |    00014D5C  C$player. |    00014D5F  A$player$
     00014D60  A$player$ |    00014D60  C$player. |    00014D61  A$player$
     00014D63  A$player$ |    00014D63  C$player. |    00014D66  A$player$
     00014D67  A$player$ |    00014D67  C$player. |    00014D6A  A$player$
     00014D6B  A$player$ |    00014D6D  A$player$ |    00014D6F  A$player$
     00014D71  A$player$ |    00014D73  A$player$ |    00014D73  C$player.
     00014D76  A$player$ |    00014D77  A$player$ |    00014D79  A$player$
     00014D7A  A$player$ |    00014D7B  A$player$ |    00014D7D  A$player$
     00014D7F  A$player$ |    00014D81  A$player$ |    00014D83  A$player$
     00014D84  A$player$ |    00014D86  A$player$ |    00014D88  A$player$
     00014D8A  A$player$ |    00014D8B  A$player$ |    00014D8D  A$player$
     00014D90  A$player$ |    00014D92  A$player$ |    00014D92  C$player.
     00014D95  A$player$ |    00014D96  A$player$ |    00014D97  A$player$
     00014D98  A$player$ |    00014D99  A$player$ |    00014D9A  A$player$
     00014D9B  A$player$ |    00014D9E  A$player$ |    00014D9F  A$player$
     00014DA0  A$player$ |    00014DA2  A$player$ |    00014DA3  A$player$
     00014DA5  A$player$ |    00014DA6  A$player$ |    00014DA6  C$player.
     00014DA7  A$player$ |    00014DA8  A$player$ |    00014DAA  A$player$
     00014DAB  A$player$ |    00014DAD  A$player$ |    00014DAE  A$player$
     00014DB1  A$player$ |    00014DB2  A$player$ |    00014DB2  C$player.
     00014DB3  A$player$ |    00014DB5  A$player$ |    00014DB7  A$player$
     00014DB8  A$player$ |    00014DBA  A$player$ |    00014DBB  A$player$
     00014DBE  A$player$ |    00014DBF  A$player$ |    00014DBF  C$player.
     00014DC0  A$player$ |    00014DC2  A$player$ |    00014DC4  A$player$
     00014DC5  A$player$ |    00014DC7  A$player$ |    00014DC8  A$player$
     00014DCB  A$player$ |    00014DCC  A$player$ |    00014DCC  C$player.
     00014DCD  A$player$ |    00014DCF  A$player$ |    00014DD1  A$player$
     00014DD3  A$player$ |    00014DD4  A$player$ |    00014DD7  A$player$
     00014DD9  A$player$ |    00014DD9  C$player. |    00014DD9  XG$move$0
     00014DDA  A$player$ |    00014DDA  C$player. |    00014DDA  C$player.
     00014DDA  G$initiat |    00014DDA  _initiate |    00014DDD  A$player$
     00014DDF  A$player$ |    00014DE1  A$player$ |    00014DE1  C$player.
     00014DE4  A$player$ |    00014DE5  A$player$ |    00014DE6  A$player$
     00014DE8  A$player$ |    00014DE9  A$player$ |    00014DEB  A$player$
     00014DED  A$player$ |    00014DF0  A$player$ |    00014DF1  A$player$
     00014DF3  A$player$ |    00014DF3  C$player. |    00014DF5  A$player$
     00014DF6  A$player$ |    00014DF9  A$player$ |    00014DFB  A$player$
     00014DFB  C$player. |    00014DFE  A$player$ |    00014DFF  A$player$
     00014E01  A$player$ |    00014E01  C$player. |    00014E03  A$player$
     00014E05  A$player$ |    00014E08  A$player$ |    00014E0A  A$player$
ASxxxx Linker V03.00/V05.40 + sdld,  page 63.
Hexadecimal  [32-Bits]

Area                       Addr        Size        Decimal Bytes (Attributes)
--------------------       ----        ----        ------- ----- ------------
_CODE_1                00014000    00001571 =        5489. bytes (REL,CON)

        Value  Global            Value  Global            Value  Global    
        -----  ------            -----  ------            -----  ------    
     00014E0A  C$player. |    00014E0D  A$player$ |    00014E0F  A$player$
     00014E0F  C$player. |    00014E12  A$player$ |    00014E13  A$player$
     00014E15  A$player$ |    00014E15  C$player. |    00014E18  A$player$
     00014E19  A$player$ |    00014E1A  A$player$ |    00014E1C  A$player$
     00014E1D  A$player$ |    00014E1F  A$player$ |    00014E21  A$player$
     00014E24  A$player$ |    00014E25  A$player$ |    00014E27  A$player$
     00014E27  C$player. |    00014E29  A$player$ |    00014E2B  A$player$
     00014E2E  A$player$ |    00014E30  A$player$ |    00014E30  C$player.
     00014E33  A$player$ |    00014E34  A$player$ |    00014E36  A$player$
     00014E36  C$player. |    00014E38  A$player$ |    00014E39  A$player$
     00014E3C  A$player$ |    00014E3E  A$player$ |    00014E3E  C$player.
     00014E41  A$player$ |    00014E43  A$player$ |    00014E43  C$player.
     00014E46  A$player$ |    00014E48  A$player$ |    00014E4A  A$player$
     00014E4A  C$player. |    00014E4D  A$player$ |    00014E4E  A$player$
     00014E4F  A$player$ |    00014E51  A$player$ |    00014E52  A$player$
     00014E54  A$player$ |    00014E56  A$player$ |    00014E56  C$player.
     00014E58  A$player$ |    00014E5A  A$player$ |    00014E5D  A$player$
     00014E5D  C$player. |    00014E60  A$player$ |    00014E61  A$player$
     00014E63  A$player$ |    00014E66  A$player$ |    00014E68  A$player$
     00014E6A  A$player$ |    00014E6A  C$player. |    00014E6C  A$player$
     00014E6D  A$player$ |    00014E70  A$player$ |    00014E70  C$player.
     00014E73  A$player$ |    00014E74  A$player$ |    00014E75  A$player$
     00014E78  A$player$ |    00014E79  A$player$ |    00014E7B  A$player$
     00014E7C  A$player$ |    00014E7C  C$player. |    00014E7E  A$player$
     00014E80  A$player$ |    00014E80  C$player. |    00014E80  XG$initia
     00014E83  A$player$ |    00014E83  C$player. |    00014E83  C$player.
     00014E83  G$calcula |    00014E83  _calculat |    00014E86  A$player$
     00014E87  A$player$ |    00014E89  A$player$ |    00014E8A  A$player$
     00014E8B  A$player$ |    00014E8D  A$player$ |    00014E8F  A$player$
     00014E91  A$player$ |    00014E93  A$player$ |    00014E94  A$player$
     00014E96  A$player$ |    00014E98  A$player$ |    00014E9A  A$player$
     00014E9B  A$player$ |    00014E9D  A$player$ |    00014E9E  A$player$
     00014E9F  A$player$ |    00014EA2  A$player$ |    00014EA3  A$player$
     00014EA5  A$player$ |    00014EA6  A$player$ |    00014EA7  A$player$
     00014EA9  A$player$ |    00014EA9  C$player. |    00014EAC  A$player$
     00014EAD  A$player$ |    00014EAE  A$player$ |    00014EAF  A$player$
     00014EB2  A$player$ |    00014EB3  A$player$ |    00014EB4  A$player$
     00014EB5  A$player$ |    00014EB6  A$player$ |    00014EB7  A$player$
     00014EB8  A$player$ |    00014EB9  A$player$ |    00014EBA  A$player$
     00014EBB  A$player$ |    00014EBC  A$player$ |    00014EBF  A$player$
     00014EC0  A$player$ |    00014EC1  A$player$ |    00014EC2  A$player$
     00014EC2  C$player. |    00014EC5  A$player$ |    00014EC7  A$player$
     00014EC8  A$player$ |    00014EC8  C$player. |    00014ECB  A$player$
     00014ECC  A$player$ |    00014ECD  A$player$ |    00014ECF  A$player$
     00014ED0  A$player$ |    00014ED3  A$player$ |    00014ED4  A$player$
     00014ED5  A$player$ |    00014ED6  A$player$ |    00014ED7  A$player$
     00014ED9  A$player$ |    00014EDB  A$player$ |    00014EDD  A$player$
     00014EDF  A$player$ |    00014EE0  A$player$ |    00014EE2  A$player$
     00014EE4  A$player$ |    00014EE6  A$player$ |    00014EE7  A$player$
     00014EE8  A$player$ |    00014EE8  C$player. |    00014EEB  A$player$
     00014EED  A$player$ |    00014EED  C$player. |    00014EED  XG$calcul
ASxxxx Linker V03.00/V05.40 + sdld,  page 64.
Hexadecimal  [32-Bits]

Area                       Addr        Size        Decimal Bytes (Attributes)
--------------------       ----        ----        ------- ----- ------------
_CODE_1                00014000    00001571 =        5489. bytes (REL,CON)

        Value  Global            Value  Global            Value  Global    
        -----  ------            -----  ------            -----  ------    
     00014EEE  A$player$ |    00014EEE  C$player. |    00014EEE  C$player.
     00014EEE  G$check_h |    00014EEE  _check_hu |    00014EF1  A$player$
     00014EF2  A$player$ |    00014EF3  A$player$ |    00014EF4  A$player$
     00014EF5  A$player$ |    00014EF6  A$player$ |    00014EF7  A$player$
     00014EF8  A$player$ |    00014EF9  A$player$ |    00014EFB  A$player$
     00014EFD  A$player$ |    00014EFF  A$player$ |    00014F01  A$player$
     00014F02  A$player$ |    00014F04  A$player$ |    00014F06  A$player$
     00014F08  A$player$ |    00014F09  A$player$ |    00014F0A  A$player$
     00014F0D  A$player$ |    00014F0E  A$player$ |    00014F0F  A$player$
     00014F0F  C$player. |    00014F12  A$player$ |    00014F14  A$player$
     00014F14  C$player. |    00014F17  A$player$ |    00014F18  A$player$
     00014F19  A$player$ |    00014F1A  A$player$ |    00014F1A  C$player.
     00014F1A  XG$check_ |    00014F1B  A$player$ |    00014F1B  C$player.
     00014F1B  C$player. |    00014F1B  G$check_f |    00014F1B  _check_fu
     00014F1E  A$player$ |    00014F1F  A$player$ |    00014F20  A$player$
     00014F21  A$player$ |    00014F22  A$player$ |    00014F23  A$player$
     00014F24  A$player$ |    00014F25  A$player$ |    00014F26  A$player$
     00014F28  A$player$ |    00014F2A  A$player$ |    00014F2C  A$player$
     00014F2E  A$player$ |    00014F2F  A$player$ |    00014F31  A$player$
     00014F33  A$player$ |    00014F35  A$player$ |    00014F36  A$player$
     00014F37  A$player$ |    00014F3A  A$player$ |    00014F3B  A$player$
     00014F3C  A$player$ |    00014F3C  C$player. |    00014F3F  A$player$
     00014F41  A$player$ |    00014F41  C$player. |    00014F44  A$player$
     00014F45  A$player$ |    00014F46  A$player$ |    00014F47  A$player$
     00014F47  C$player. |    00014F47  XG$check_ |    00014F48  A$player$
     00014F48  C$player. |    00014F48  C$player. |    00014F48  G$update_
     00014F48  _update_f |    00014F4B  A$player$ |    00014F4C  A$player$
     00014F4E  A$player$ |    00014F4E  C$player. |    00014F51  A$player$
     00014F52  A$player$ |    00014F53  A$player$ |    00014F54  A$player$
     00014F55  A$player$ |    00014F58  A$player$ |    00014F59  A$player$
     00014F5A  A$player$ |    00014F5B  A$player$ |    00014F5B  C$player.
     00014F5D  A$player$ |    00014F60  A$player$ |    00014F61  A$player$
     00014F62  A$player$ |    00014F65  A$player$ |    00014F66  A$player$
     00014F67  A$player$ |    00014F68  A$player$ |    00014F6B  A$player$
     00014F6C  A$player$ |    00014F6D  A$player$ |    00014F6E  A$player$
     00014F6E  C$player. |    00014F6E  XG$update |    00014F6F  A$player$
     00014F6F  C$player. |    00014F6F  C$player. |    00014F6F  G$check_e
     00014F6F  _check_en |    00014F72  A$player$ |    00014F74  A$player$
     00014F76  A$player$ |    00014F78  A$player$ |    00014F79  A$player$
     00014F7A  A$player$ |    00014F7D  A$player$ |    00014F7F  A$player$
     00014F81  A$player$ |    00014F83  A$player$ |    00014F84  A$player$
     00014F85  A$player$ |    00014F86  A$player$ |    00014F87  A$player$
     00014F89  A$player$ |    00014F8A  A$player$ |    00014F8B  A$player$
     00014F8D  A$player$ |    00014F90  A$player$ |    00014F91  A$player$
     00014F93  A$player$ |    00014F96  A$player$ |    00014F97  A$player$
     00014F99  A$player$ |    00014F99  C$player. |    00014F9C  A$player$
     00014F9E  A$player$ |    00014F9E  C$player. |    00014FA1  A$player$
     00014FA3  A$player$ |    00014FA3  C$player. |    00014FA6  A$player$
     00014FA8  A$player$ |    00014FAA  A$player$ |    00014FAA  C$player.
     00014FAB  A$player$ |    00014FAD  A$player$ |    00014FAF  A$player$
     00014FB1  A$player$ |    00014FB3  A$player$ |    00014FB3  C$player.
ASxxxx Linker V03.00/V05.40 + sdld,  page 65.
Hexadecimal  [32-Bits]

Area                       Addr        Size        Decimal Bytes (Attributes)
--------------------       ----        ----        ------- ----- ------------
_CODE_1                00014000    00001571 =        5489. bytes (REL,CON)

        Value  Global            Value  Global            Value  Global    
        -----  ------            -----  ------            -----  ------    
     00014FB6  A$player$ |    00014FB8  A$player$ |    00014FB8  C$player.
     00014FBB  A$player$ |    00014FBD  A$player$ |    00014FBF  A$player$
     00014FC1  A$player$ |    00014FC2  A$player$ |    00014FC3  A$player$
     00014FC4  A$player$ |    00014FC5  A$player$ |    00014FC7  A$player$
     00014FC8  A$player$ |    00014FC9  A$player$ |    00014FCB  A$player$
     00014FCE  A$player$ |    00014FCF  A$player$ |    00014FD1  A$player$
     00014FD4  A$player$ |    00014FD5  A$player$ |    00014FD7  A$player$
     00014FD7  C$player. |    00014FDA  A$player$ |    00014FDC  A$player$
     00014FDC  C$player. |    00014FDF  A$player$ |    00014FE1  A$player$
     00014FE1  C$player. |    00014FE4  A$player$ |    00014FE6  A$player$
     00014FE7  A$player$ |    00014FE7  C$player. |    00014FE9  A$player$
     00014FEB  A$player$ |    00014FED  A$player$ |    00014FEE  A$player$
     00014FEE  C$player. |    00014FF1  A$player$ |    00014FF3  A$player$
     00014FF3  C$player. |    00014FF3  XG$check_ |    00014FF4  A$player$
     00014FF4  C$player. |    00014FF4  C$player. |    00014FF4  G$check_g
     00014FF4  _check_ga |    00014FF7  A$player$ |    00014FF8  A$player$
     00014FF9  A$player$ |    00014FF9  C$player. |    00014FFC  A$player$
     00014FFE  A$player$ |    00014FFE  C$player. |    00014FFE  XG$check_
     00014FFF  A$player$ |    00014FFF  C$player. |    00014FFF  C$player.
     00014FFF  G$reset_p |    00014FFF  _reset_pl |    00015002  A$player$
     00015004  A$player$ |    00015004  C$player. |    00015007  A$player$
     00015008  A$player$ |    00015009  A$player$ |    0001500A  A$player$
     0001500D  A$player$ |    0001500E  A$player$ |    0001500F  A$player$
     00015010  A$player$ |    00015010  C$player. |    00015013  A$player$
     00015014  A$player$ |    00015015  A$player$ |    00015016  A$player$
     00015019  A$player$ |    0001501A  A$player$ |    0001501B  A$player$
     0001501C  A$player$ |    0001501C  C$player. |    0001501C  XG$reset_
     0001501D  C$nav.c$9 |    0001501D  G$__func_ |    0001501D  G$nav_pal
     0001501D  ___func_n |    0001501D  _nav_pale |    00015025  G$nav_til
     00015025  _nav_tile |    000150E5  G$nav_map |    000150E5  _nav_map 
     00015121  C$progres |    00015121  G$__func_ |    00015121  G$progres
     00015121  ___func_p |    00015121  _progress |    000151B1  C$rover.c
     000151B1  G$__func_ |    000151B1  G$rover_t |    000151B1  ___func_r
     000151B1  _rover_ti |    00015351  C$tile.c$ |    00015351  G$__func_
     00015351  G$tile_ti |    00015351  ___func_t |    00015351  _tile_til
ASxxxx Linker V03.00/V05.40 + sdld,  page 66.
Hexadecimal  [32-Bits]

Area                       Addr        Size        Decimal Bytes (Attributes)
--------------------       ----        ----        ------- ----- ------------
_CODE_2                00024000    000030C1 =       12481. bytes (REL,CON)

        Value  Global            Value  Global            Value  Global    
        -----  ------            -----  ------            -----  ------    
     00024000  A$shop$13 |    00024000  C$shop.c$ |    00024000  C$shop.c$
     00024000  C$shop.c$ |    00024000  G$__func_ |    00024000  G$init_sh
     00024000  ___func_b |    00024000  _init_sho |    00024003  A$shop$13
     00024004  A$shop$13 |    00024005  A$shop$13 |    00024006  A$shop$13
     00024007  A$shop$13 |    0002400A  A$shop$13 |    0002400C  A$shop$14
     0002400C  C$shop.c$ |    0002400F  A$shop$14 |    00024010  A$shop$14
     00024013  A$shop$14 |    00024014  A$shop$14 |    00024017  A$shop$14
     00024019  A$shop$15 |    00024019  C$shop.c$ |    0002401C  A$shop$15
     0002401D  A$shop$15 |    00024020  A$shop$15 |    00024021  A$shop$15
     00024024  A$shop$15 |    00024026  A$shop$16 |    00024026  C$shop.c$
     00024029  A$shop$16 |    0002402A  A$shop$16 |    0002402D  A$shop$16
     0002402E  A$shop$16 |    0002402F  A$shop$16 |    00024030  A$shop$16
     00024031  A$shop$16 |    00024034  A$shop$16 |    00024036  A$shop$17
     00024036  C$shop.c$ |    00024039  A$shop$17 |    0002403A  A$shop$17
     0002403B  A$shop$17 |    0002403C  A$shop$17 |    0002403D  A$shop$17
     00024040  A$shop$17 |    00024042  A$shop$18 |    00024042  C$shop.c$
     00024045  A$shop$18 |    00024046  A$shop$18 |    00024049  A$shop$18
     0002404A  A$shop$18 |    0002404D  A$shop$18 |    0002404F  A$shop$19
     0002404F  C$shop.c$ |    00024052  A$shop$19 |    00024053  A$shop$19
     00024056  A$shop$19 |    00024057  A$shop$19 |    0002405A  A$shop$19
     0002405C  A$shop$20 |    0002405C  C$shop.c$ |    0002405F  A$shop$20
     00024060  A$shop$20 |    00024063  A$shop$20 |    00024064  A$shop$20
     00024067  A$shop$20 |    00024069  A$shop$20 |    00024069  C$shop.c$
     0002406C  A$shop$21 |    0002406D  A$shop$21 |    00024070  A$shop$21
     00024071  A$shop$21 |    00024074  A$shop$21 |    00024076  A$shop$21
     00024076  C$shop.c$ |    00024079  A$shop$21 |    0002407A  A$shop$22
     0002407D  A$shop$22 |    0002407E  A$shop$22 |    00024081  A$shop$22
     00024083  A$shop$22 |    00024083  C$shop.c$ |    00024086  A$shop$22
     00024087  A$shop$22 |    0002408A  A$shop$23 |    0002408B  A$shop$23
     0002408E  A$shop$23 |    00024090  A$shop$23 |    00024090  C$shop.c$
     00024093  A$shop$23 |    00024094  A$shop$23 |    00024097  A$shop$23
     00024098  A$shop$24 |    0002409B  A$shop$24 |    0002409D  A$shop$24
     0002409D  C$shop.c$ |    000240A0  A$shop$24 |    000240A1  A$shop$24
     000240A3  A$shop$24 |    000240A4  A$shop$24 |    000240A5  A$shop$25
     000240A7  A$shop$25 |    000240A8  A$shop$25 |    000240A9  A$shop$25
     000240AC  A$shop$25 |    000240AE  A$shop$25 |    000240B1  A$shop$25
     000240B3  A$shop$26 |    000240B6  A$shop$26 |    000240B8  A$shop$26
     000240B9  A$shop$26 |    000240BB  A$shop$26 |    000240BE  A$shop$26
     000240C0  A$shop$26 |    000240C3  A$shop$26 |    000240C5  A$shop$27
     000240C8  A$shop$27 |    000240C9  A$shop$27 |    000240CC  A$shop$27
     000240CC  C$shop.c$ |    000240CF  A$shop$27 |    000240D1  A$shop$28
     000240D1  C$shop.c$ |    000240D1  XG$init_s |    000240D2  G$metaspr
     000240D2  _metaspri |    00024106  A$shop$35 |    00024106  C$shop.c$
     00024106  G$init_sh |    00024106  _init_sho |    00024108  A$shop$35
     00024108  C$shop.c$ |    0002410A  A$shop$35 |    0002410C  A$shop$35
     0002410D  A$shop$35 |    0002410F  A$shop$35 |    00024110  A$shop$35
     00024112  A$shop$36 |    00024113  A$shop$36 |    00024115  A$shop$36
     00024116  A$shop$36 |    00024118  A$shop$36 |    00024119  A$shop$36
     0002411B  A$shop$36 |    0002411B  C$shop.c$ |    0002411C  A$shop$37
     0002411E  A$shop$37 |    0002411F  A$shop$37 |    00024121  A$shop$37
ASxxxx Linker V03.00/V05.40 + sdld,  page 67.
Hexadecimal  [32-Bits]

Area                       Addr        Size        Decimal Bytes (Attributes)
--------------------       ----        ----        ------- ----- ------------
_CODE_2                00024000    000030C1 =       12481. bytes (REL,CON)

        Value  Global            Value  Global            Value  Global    
        -----  ------            -----  ------            -----  ------    
     00024122  A$shop$37 |    00024124  A$shop$37 |    00024125  A$shop$37
     00024127  A$shop$37 |    00024128  A$shop$37 |    0002412A  A$shop$37
     0002412B  A$shop$38 |    0002412D  A$shop$38 |    0002412D  C$shop.c$
     0002412F  A$shop$38 |    00024131  A$shop$38 |    00024131  C$shop.c$
     00024133  A$shop$39 |    00024134  A$shop$39 |    00024136  A$shop$39
     00024138  A$shop$39 |    00024138  C$shop.c$ |    0002413A  A$shop$39
     0002413B  A$shop$40 |    0002413D  A$shop$40 |    0002413F  A$shop$40
     0002413F  C$shop.c$ |    00024140  A$shop$40 |    00024142  A$shop$40
     00024145  A$shop$40 |    00024146  A$shop$40 |    00024147  A$shop$41
     00024148  A$shop$41 |    0002414A  A$shop$41 |    0002414B  A$shop$41
     0002414B  C$shop.c$ |    0002414C  A$shop$41 |    0002414E  A$shop$42
     0002414E  C$shop.c$ |    0002414F  A$shop$42 |    00024151  A$shop$42
     00024154  A$shop$42 |    00024155  A$shop$42 |    00024156  A$shop$42
     00024157  A$shop$42 |    00024158  A$shop$42 |    0002415A  A$shop$43
     0002415D  A$shop$43 |    0002415E  A$shop$43 |    0002415F  A$shop$43
     00024160  A$shop$43 |    00024163  A$shop$43 |    00024164  A$shop$43
     00024165  A$shop$43 |    00024168  A$shop$43 |    00024169  A$shop$43
     0002416A  A$shop$44 |    0002416B  A$shop$44 |    0002416C  A$shop$44
     0002416D  A$shop$44 |    0002416E  A$shop$44 |    00024171  A$shop$44
     00024173  A$shop$44 |    00024173  C$shop.c$ |    00024174  A$shop$45
     00024176  A$shop$45 |    00024176  C$shop.c$ |    00024177  A$shop$45
     00024179  A$shop$46 |    0002417B  A$shop$46 |    0002417B  C$shop.c$
     0002417B  XG$init_s |    0002417C  A$shop$47 |    0002417C  C$shop.c$
     0002417C  G$updateM |    0002417C  _updateMe |    0002417E  A$shop$47
     0002417E  C$shop.c$ |    00024180  A$shop$48 |    00024181  A$shop$48
     00024184  A$shop$48 |    00024185  A$shop$48 |    00024186  A$shop$48
     00024187  A$shop$48 |    0002418A  A$shop$48 |    0002418B  A$shop$48
     0002418C  A$shop$48 |    0002418D  A$shop$48 |    0002418E  A$shop$49
     0002418F  A$shop$49 |    00024190  A$shop$49 |    00024191  A$shop$49
     00024193  A$shop$49 |    00024195  A$shop$49 |    00024196  A$shop$49
     00024196  C$shop.c$ |    00024199  A$shop$50 |    0002419A  A$shop$50
     0002419B  A$shop$50 |    0002419E  A$shop$50 |    0002419F  A$shop$50
     000241A0  A$shop$50 |    000241A1  A$shop$50 |    000241A2  A$shop$50
     000241A3  A$shop$50 |    000241A4  A$shop$50 |    000241A5  A$shop$51
     000241A7  A$shop$51 |    000241A8  A$shop$51 |    000241AB  A$shop$51
     000241AD  A$shop$51 |    000241AE  A$shop$51 |    000241B0  A$shop$51
     000241B3  A$shop$52 |    000241B5  A$shop$52 |    000241B8  A$shop$52
     000241BA  A$shop$52 |    000241BB  A$shop$52 |    000241BD  A$shop$52
     000241BE  A$shop$52 |    000241BF  A$shop$52 |    000241C0  A$shop$53
     000241C1  A$shop$53 |    000241C4  A$shop$53 |    000241C4  C$shop.c$
     000241C6  A$shop$54 |    000241C6  C$shop.c$ |    000241C6  XG$update
     000241C7  A$shop$55 |    000241C7  C$shop.c$ |    000241C7  G$update_
     000241C7  _update_u |    000241C9  A$shop$55 |    000241C9  C$shop.c$
     000241CA  A$shop$55 |    000241CC  A$shop$55 |    000241CE  A$shop$56
     000241CE  C$shop.c$ |    000241D1  A$shop$56 |    000241D2  A$shop$56
     000241D4  A$shop$57 |    000241D5  A$shop$57 |    000241D6  A$shop$57
     000241D7  A$shop$57 |    000241D8  A$shop$57 |    000241D9  A$shop$57
     000241D9  C$shop.c$ |    000241DC  A$shop$57 |    000241DD  A$shop$58
     000241DE  A$shop$58 |    000241E0  A$shop$58 |    000241E1  A$shop$58
     000241E4  A$shop$58 |    000241E5  A$shop$58 |    000241E6  A$shop$58
     000241E7  A$shop$58 |    000241EA  A$shop$58 |    000241EB  A$shop$58
ASxxxx Linker V03.00/V05.40 + sdld,  page 68.
Hexadecimal  [32-Bits]

Area                       Addr        Size        Decimal Bytes (Attributes)
--------------------       ----        ----        ------- ----- ------------
_CODE_2                00024000    000030C1 =       12481. bytes (REL,CON)

        Value  Global            Value  Global            Value  Global    
        -----  ------            -----  ------            -----  ------    
     000241EC  A$shop$59 |    000241ED  A$shop$59 |    000241EE  A$shop$59
     000241EF  A$shop$59 |    000241F0  A$shop$59 |    000241F1  A$shop$59
     000241F3  A$shop$59 |    000241F5  A$shop$59 |    000241F6  A$shop$60
     000241F6  C$shop.c$ |    000241F9  A$shop$60 |    000241FA  A$shop$60
     000241FB  A$shop$60 |    000241FE  A$shop$60 |    000241FF  A$shop$60
     00024200  A$shop$60 |    00024201  A$shop$60 |    00024202  A$shop$60
     00024203  A$shop$61 |    00024204  A$shop$61 |    00024205  A$shop$61
     00024207  A$shop$61 |    00024208  A$shop$61 |    0002420B  A$shop$61
     0002420C  A$shop$61 |    0002420D  A$shop$61 |    0002420F  A$shop$62
     00024210  A$shop$62 |    00024211  A$shop$62 |    00024211  C$shop.c$
     00024213  A$shop$62 |    00024216  A$shop$62 |    00024218  A$shop$63
     00024218  C$shop.c$ |    0002421A  A$shop$64 |    0002421A  C$shop.c$
     0002421A  XG$update |    0002421B  A$shop$65 |    0002421B  C$shop.c$
     0002421B  C$shop.c$ |    0002421B  G$display |    0002421B  _displayM
     0002421C  A$shop$65 |    0002421D  A$shop$66 |    0002421D  C$shop.c$
     0002421D  XG$displa |    00024220  A$shop$67 |    00024220  C$shop.c$
     00024220  G$load_sh |    00024220  _load_sho |    00024222  A$shop$67
     00024224  A$shop$67 |    00024225  A$shop$67 |    00024226  A$shop$67
     00024227  A$shop$67 |    00024228  A$shop$68 |    00024229  A$shop$68
     0002422A  A$shop$68 |    0002422A  C$shop.c$ |    0002422C  A$shop$68
     0002422D  A$shop$68 |    0002422E  A$shop$68 |    00024230  A$shop$68
     00024232  A$shop$69 |    00024232  C$shop.c$ |    00024234  A$shop$69
     00024235  A$shop$69 |    00024237  A$shop$69 |    00024238  A$shop$70
     0002423A  A$shop$70 |    0002423B  A$shop$70 |    0002423D  A$shop$70
     0002423F  A$shop$70 |    0002423F  C$shop.c$ |    00024240  A$shop$70
     00024242  A$shop$71 |    00024243  A$shop$71 |    00024244  A$shop$71
     00024245  A$shop$71 |    00024247  A$shop$71 |    00024248  A$shop$71
     0002424A  A$shop$71 |    0002424B  A$shop$71 |    0002424C  A$shop$72
     0002424C  C$shop.c$ |    0002424D  A$shop$72 |    0002424F  A$shop$72
     0002424F  C$shop.c$ |    00024251  A$shop$72 |    00024252  A$shop$72
     00024254  A$shop$73 |    00024255  A$shop$73 |    00024257  A$shop$73
     00024259  A$shop$73 |    0002425A  A$shop$73 |    0002425C  A$shop$73
     0002425D  A$shop$73 |    0002425E  A$shop$73 |    0002425F  A$shop$73
     00024260  A$shop$73 |    00024261  A$shop$74 |    00024262  A$shop$74
     00024263  A$shop$74 |    00024264  A$shop$74 |    00024265  A$shop$74
     00024266  A$shop$74 |    00024267  A$shop$74 |    00024268  A$shop$74
     00024269  A$shop$74 |    0002426A  A$shop$74 |    0002426B  A$shop$75
     0002426C  A$shop$75 |    0002426D  A$shop$75 |    0002426E  A$shop$75
     0002426F  A$shop$75 |    00024270  A$shop$75 |    00024271  A$shop$75
     00024273  A$shop$75 |    00024274  A$shop$75 |    00024275  A$shop$75
     00024276  A$shop$76 |    00024278  A$shop$76 |    00024279  A$shop$76
     0002427A  A$shop$76 |    0002427B  A$shop$76 |    0002427C  A$shop$76
     0002427E  A$shop$76 |    0002427F  A$shop$76 |    00024280  A$shop$76
     00024281  A$shop$76 |    00024282  A$shop$77 |    00024283  A$shop$77
     00024284  A$shop$77 |    00024287  A$shop$77 |    00024288  A$shop$77
     00024289  A$shop$77 |    0002428B  A$shop$77 |    0002428C  A$shop$77
     0002428D  A$shop$77 |    0002428F  A$shop$77 |    00024290  A$shop$78
     00024291  A$shop$78 |    00024292  A$shop$78 |    00024295  A$shop$78
     00024297  A$shop$78 |    00024297  C$shop.c$ |    00024299  A$shop$78
     0002429A  A$shop$78 |    0002429B  A$shop$79 |    0002429D  A$shop$79
     0002429E  A$shop$79 |    000242A1  A$shop$79 |    000242A2  A$shop$79
ASxxxx Linker V03.00/V05.40 + sdld,  page 69.
Hexadecimal  [32-Bits]

Area                       Addr        Size        Decimal Bytes (Attributes)
--------------------       ----        ----        ------- ----- ------------
_CODE_2                00024000    000030C1 =       12481. bytes (REL,CON)

        Value  Global            Value  Global            Value  Global    
        -----  ------            -----  ------            -----  ------    
     000242A5  A$shop$79 |    000242A6  A$shop$79 |    000242A9  A$shop$79
     000242AB  A$shop$79 |    000242AD  A$shop$80 |    000242AD  C$shop.c$
     000242AF  A$shop$80 |    000242B0  A$shop$80 |    000242B1  A$shop$80
     000242B3  A$shop$80 |    000242B4  A$shop$80 |    000242B7  A$shop$80
     000242B8  A$shop$81 |    000242BB  A$shop$81 |    000242BC  A$shop$81
     000242BF  A$shop$81 |    000242C1  A$shop$81 |    000242C3  A$shop$81
     000242C3  C$shop.c$ |    000242C5  A$shop$82 |    000242C6  A$shop$82
     000242C8  A$shop$82 |    000242CA  A$shop$82 |    000242CB  A$shop$82
     000242CE  A$shop$82 |    000242CF  A$shop$82 |    000242D2  A$shop$82
     000242D3  A$shop$82 |    000242D6  A$shop$82 |    000242D8  A$shop$83
     000242DA  A$shop$83 |    000242DA  C$shop.c$ |    000242DC  A$shop$83
     000242DD  A$shop$83 |    000242DF  A$shop$83 |    000242E1  A$shop$83
     000242E2  A$shop$84 |    000242E5  A$shop$84 |    000242E6  A$shop$84
     000242E9  A$shop$84 |    000242EA  A$shop$84 |    000242ED  A$shop$84
     000242EF  A$shop$84 |    000242F1  A$shop$85 |    000242F1  C$shop.c$
     000242F3  A$shop$85 |    000242F4  A$shop$85 |    000242F6  A$shop$85
     000242F8  A$shop$85 |    000242F9  A$shop$85 |    000242FC  A$shop$85
     000242FD  A$shop$85 |    00024300  A$shop$85 |    00024301  A$shop$86
     00024304  A$shop$86 |    00024306  A$shop$86 |    00024308  A$shop$86
     00024308  C$shop.c$ |    0002430A  A$shop$86 |    0002430B  A$shop$86
     0002430D  A$shop$87 |    0002430F  A$shop$87 |    00024310  A$shop$87
     00024313  A$shop$87 |    00024314  A$shop$87 |    00024317  A$shop$87
     00024318  A$shop$87 |    0002431B  A$shop$87 |    0002431D  A$shop$88
     0002431D  C$shop.c$ |    0002431F  A$shop$88 |    00024320  A$shop$88
     00024321  A$shop$88 |    00024322  A$shop$89 |    00024322  C$shop.c$
     00024322  G$load_su |    00024322  _load_sub |    00024324  A$shop$90
     00024325  A$shop$90 |    00024327  A$shop$90 |    00024328  A$shop$90
     00024328  C$shop.c$ |    00024329  A$shop$90 |    0002432B  A$shop$91
     0002432C  A$shop$91 |    0002432D  A$shop$91 |    0002432E  A$shop$91
     0002432F  A$shop$91 |    00024332  A$shop$91 |    00024333  A$shop$91
     00024334  A$shop$91 |    00024335  A$shop$92 |    00024336  A$shop$92
     00024339  A$shop$92 |    0002433A  A$shop$92 |    0002433B  A$shop$92
     0002433C  A$shop$92 |    0002433D  A$shop$92 |    0002433E  A$shop$92
     00024341  A$shop$92 |    00024342  A$shop$93 |    00024342  C$shop.c$
     00024343  A$shop$94 |    00024343  C$shop.c$ |    00024343  XG$load_s
     00024345  A$shop$95 |    00024345  C$shop.c$ |    00024345  G$load_ma
     00024345  _load_mai |    00024346  A$shop$95 |    00024346  C$shop.c$
     00024348  A$shop$95 |    0002434A  A$shop$95 |    0002434C  A$shop$95
     0002434D  A$shop$95 |    0002434F  A$shop$96 |    00024351  A$shop$96
     00024351  C$shop.c$ |    00024352  A$shop$96 |    00024354  A$shop$96
     00024355  A$shop$96 |    00024356  A$shop$96 |    00024357  A$shop$96
     0002435A  A$shop$97 |    0002435B  A$shop$97 |    0002435C  A$shop$97
     0002435D  A$shop$97 |    0002435E  A$shop$97 |    00024361  A$shop$97
     00024362  A$shop$97 |    00024363  A$shop$97 |    00024365  A$shop$97
     00024367  A$shop$98 |    00024369  A$shop$98 |    0002436B  A$shop$98
     0002436D  A$shop$98 |    0002436F  A$shop$98 |    00024371  A$shop$98
     00024373  A$shop$98 |    00024376  A$shop$98 |    00024377  A$shop$98
     00024378  A$shop$98 |    00024379  A$shop$99 |    0002437B  A$shop$99
     0002437C  A$shop$99 |    0002437D  A$shop$99 |    0002437E  A$shop$99
     0002437F  A$shop$99 |    00024380  A$shop$99 |    00024381  A$shop$99
     00024382  A$shop$99 |    00024383  A$shop$99 |    00024384  A$shop$10
ASxxxx Linker V03.00/V05.40 + sdld,  page 70.
Hexadecimal  [32-Bits]

Area                       Addr        Size        Decimal Bytes (Attributes)
--------------------       ----        ----        ------- ----- ------------
_CODE_2                00024000    000030C1 =       12481. bytes (REL,CON)

        Value  Global            Value  Global            Value  Global    
        -----  ------            -----  ------            -----  ------    
     00024387  A$shop$10 |    00024387  C$shop.c$ |    00024389  A$shop$10
     0002438A  A$shop$10 |    0002438C  A$shop$10 |    0002438D  A$shop$10
     0002438D  C$shop.c$ |    0002438D  XG$load_m |    0002438E  A$shop$10
     0002438E  C$shop.c$ |    0002438E  G$write_m |    0002438E  _write_ma
     00024390  A$shop$10 |    00024390  C$shop.c$ |    00024393  A$shop$10
     00024394  A$shop$10 |    00024395  A$shop$10 |    00024396  A$shop$10
     00024398  A$shop$10 |    00024399  A$shop$10 |    0002439A  A$shop$10
     0002439D  A$shop$10 |    0002439E  A$shop$10 |    0002439F  A$shop$10
     000243A0  A$shop$10 |    000243A3  A$shop$10 |    000243A5  A$shop$10
     000243A5  C$shop.c$ |    000243A6  A$shop$10 |    000243A7  A$shop$10
     000243A9  A$shop$10 |    000243AA  A$shop$10 |    000243AC  A$shop$10
     000243AD  A$shop$10 |    000243AE  A$shop$10 |    000243B1  A$shop$10
     000243B2  A$shop$10 |    000243B4  A$shop$10 |    000243B6  A$shop$10
     000243B9  A$shop$10 |    000243B9  C$shop.c$ |    000243BC  A$shop$10
     000243BF  A$shop$10 |    000243C0  A$shop$10 |    000243C3  A$shop$10
     000243C4  A$shop$10 |    000243C5  A$shop$10 |    000243C7  A$shop$10
     000243C8  A$shop$10 |    000243C9  A$shop$10 |    000243CA  A$shop$10
     000243CB  A$shop$10 |    000243CC  A$shop$10 |    000243CF  A$shop$10
     000243D0  A$shop$10 |    000243D1  A$shop$10 |    000243D2  A$shop$10
     000243D3  A$shop$10 |    000243D4  A$shop$10 |    000243D5  A$shop$10
     000243D7  A$shop$10 |    000243D8  A$shop$10 |    000243DA  A$shop$10
     000243DB  A$shop$10 |    000243DC  A$shop$10 |    000243DD  A$shop$10
     000243DF  A$shop$10 |    000243E0  A$shop$10 |    000243E3  A$shop$10
     000243E3  C$shop.c$ |    000243E4  A$shop$11 |    000243E5  A$shop$11
     000243E7  A$shop$11 |    000243E8  A$shop$11 |    000243EA  A$shop$11
     000243EB  A$shop$11 |    000243EC  A$shop$11 |    000243EF  A$shop$11
     000243F0  A$shop$11 |    000243F2  A$shop$11 |    000243F4  A$shop$11
     000243F7  A$shop$11 |    000243F7  C$shop.c$ |    000243FA  A$shop$11
     000243FB  A$shop$11 |    000243FC  A$shop$11 |    000243FD  A$shop$11
     000243FE  A$shop$11 |    000243FF  A$shop$11 |    00024401  A$shop$11
     00024402  A$shop$11 |    00024403  A$shop$11 |    00024404  A$shop$11
     00024406  A$shop$11 |    00024408  A$shop$11 |    0002440B  A$shop$11
     0002440B  C$shop.c$ |    0002440C  A$shop$11 |    0002440D  A$shop$11
     0002440F  A$shop$11 |    00024410  A$shop$11 |    00024412  A$shop$11
     00024413  A$shop$11 |    00024414  A$shop$11 |    00024417  A$shop$11
     00024418  A$shop$11 |    0002441A  A$shop$11 |    0002441C  A$shop$11
     0002441F  A$shop$11 |    00024421  A$shop$11 |    00024421  C$shop.c$
     00024421  XG$write_ |    00024422  Fshop$__s |    00024430  Fshop$__s
     00024436  Fshop$__s |    00024438  A$shop$11 |    00024438  C$shop.c$
     00024438  G$write_s |    00024438  _write_su |    0002443A  A$shop$11
     0002443A  C$shop.c$ |    0002443D  A$shop$11 |    0002443E  A$shop$11
     00024440  A$shop$11 |    00024441  A$shop$11 |    00024444  A$shop$11
     00024445  A$shop$11 |    00024446  A$shop$11 |    00024447  A$shop$11
     00024449  A$shop$11 |    0002444A  A$shop$11 |    0002444C  A$shop$11
     0002444D  A$shop$11 |    00024450  A$shop$11 |    00024451  A$shop$11
     00024452  A$shop$11 |    00024453  A$shop$11 |    00024454  A$shop$11
     00024455  A$shop$11 |    00024456  A$shop$12 |    00024458  A$shop$12
     00024459  A$shop$12 |    0002445A  A$shop$12 |    0002445B  A$shop$12
     0002445C  A$shop$12 |    0002445E  A$shop$12 |    0002445F  A$shop$12
     00024460  A$shop$12 |    00024463  A$shop$12 |    00024464  A$shop$12
     00024465  A$shop$12 |    00024466  A$shop$12 |    00024469  A$shop$12
ASxxxx Linker V03.00/V05.40 + sdld,  page 71.
Hexadecimal  [32-Bits]

Area                       Addr        Size        Decimal Bytes (Attributes)
--------------------       ----        ----        ------- ----- ------------
_CODE_2                00024000    000030C1 =       12481. bytes (REL,CON)

        Value  Global            Value  Global            Value  Global    
        -----  ------            -----  ------            -----  ------    
     0002446B  A$shop$12 |    0002446B  C$shop.c$ |    0002446E  A$shop$12
     0002446F  A$shop$12 |    00024471  A$shop$12 |    00024472  A$shop$12
     00024475  A$shop$12 |    00024476  A$shop$12 |    00024477  A$shop$12
     00024478  A$shop$12 |    0002447A  A$shop$12 |    0002447B  A$shop$12
     0002447D  A$shop$12 |    0002447E  A$shop$12 |    00024481  A$shop$12
     00024482  A$shop$12 |    00024483  A$shop$12 |    00024484  A$shop$12
     00024485  A$shop$12 |    00024486  A$shop$12 |    00024487  A$shop$12
     00024489  A$shop$12 |    0002448A  A$shop$12 |    0002448B  A$shop$12
     0002448C  A$shop$12 |    0002448D  A$shop$12 |    0002448F  A$shop$12
     00024490  A$shop$12 |    00024491  A$shop$12 |    00024494  A$shop$12
     00024495  A$shop$12 |    00024496  A$shop$12 |    00024497  A$shop$12
     0002449A  A$shop$12 |    0002449C  A$shop$12 |    0002449C  C$shop.c$
     0002449F  A$shop$12 |    000244A0  A$shop$12 |    000244A1  A$shop$12
     000244A2  A$shop$12 |    000244A4  A$shop$12 |    000244A5  A$shop$12
     000244A6  A$shop$12 |    000244A9  A$shop$12 |    000244AA  A$shop$12
     000244AB  A$shop$12 |    000244AC  A$shop$12 |    000244AF  A$shop$12
     000244B1  A$shop$12 |    000244B1  C$shop.c$ |    000244B4  A$shop$12
     000244B5  A$shop$12 |    000244B7  A$shop$12 |    000244B8  A$shop$12
     000244BB  A$shop$12 |    000244BC  A$shop$12 |    000244BD  A$shop$12
     000244BE  A$shop$12 |    000244BF  A$shop$12 |    000244C2  A$shop$12
     000244C3  A$shop$12 |    000244C4  A$shop$12 |    000244C5  A$shop$12
     000244C6  A$shop$12 |    000244C9  A$shop$12 |    000244CA  A$shop$12
     000244CB  A$shop$12 |    000244CC  A$shop$12 |    000244CF  A$shop$13
     000244CF  C$shop.c$ |    000244D2  A$shop$13 |    000244D3  A$shop$13
     000244D5  A$shop$13 |    000244D6  A$shop$13 |    000244D9  A$shop$13
     000244DA  A$shop$13 |    000244DB  A$shop$13 |    000244DC  A$shop$13
     000244DD  A$shop$13 |    000244E0  A$shop$13 |    000244E1  A$shop$13
     000244E2  A$shop$13 |    000244E3  A$shop$13 |    000244E4  A$shop$13
     000244E5  A$shop$13 |    000244E6  A$shop$13 |    000244E8  A$shop$13
     000244E9  A$shop$13 |    000244EA  A$shop$13 |    000244EB  A$shop$13
     000244EC  A$shop$13 |    000244ED  A$shop$13 |    000244EE  A$shop$13
     000244F0  A$shop$13 |    000244F1  A$shop$13 |    000244F3  A$shop$13
     000244F4  A$shop$13 |    000244F5  A$shop$13 |    000244F6  A$shop$13
     000244F8  A$shop$13 |    000244FA  A$shop$13 |    000244FD  A$shop$13
     000244FD  C$shop.c$ |    00024500  A$shop$13 |    00024501  A$shop$13
     00024502  A$shop$13 |    00024503  A$shop$13 |    00024505  A$shop$13
     00024506  A$shop$13 |    00024508  A$shop$13 |    00024509  A$shop$13
     0002450A  A$shop$13 |    0002450B  A$shop$13 |    0002450D  A$shop$13
     0002450E  A$shop$13 |    00024511  A$shop$13 |    00024511  C$shop.c$
     00024514  A$shop$13 |    00024515  A$shop$13 |    00024516  A$shop$13
     00024517  A$shop$13 |    00024518  A$shop$13 |    00024519  A$shop$13
     0002451B  A$shop$13 |    0002451C  A$shop$13 |    0002451D  A$shop$13
     0002451E  A$shop$13 |    00024520  A$shop$13 |    00024522  A$shop$13
     00024525  A$shop$13 |    00024525  C$shop.c$ |    00024526  A$shop$13
     00024527  A$shop$13 |    00024529  A$shop$13 |    0002452A  A$shop$13
     0002452C  A$shop$13 |    0002452D  A$shop$13 |    0002452E  A$shop$13
     00024531  A$shop$13 |    00024532  A$shop$13 |    00024534  A$shop$13
     00024536  A$shop$13 |    00024539  A$shop$13 |    00024539  C$shop.c$
     0002453A  A$shop$13 |    0002453B  A$shop$13 |    0002453D  A$shop$13
     0002453E  A$shop$13 |    00024540  A$shop$13 |    00024541  A$shop$13
     00024542  A$shop$13 |    00024545  A$shop$13 |    00024546  A$shop$13
ASxxxx Linker V03.00/V05.40 + sdld,  page 72.
Hexadecimal  [32-Bits]

Area                       Addr        Size        Decimal Bytes (Attributes)
--------------------       ----        ----        ------- ----- ------------
_CODE_2                00024000    000030C1 =       12481. bytes (REL,CON)

        Value  Global            Value  Global            Value  Global    
        -----  ------            -----  ------            -----  ------    
     00024548  A$shop$13 |    0002454A  A$shop$13 |    0002454D  A$shop$14
     0002454D  C$shop.c$ |    00024550  A$shop$14 |    00024551  A$shop$14
     00024552  A$shop$14 |    00024553  A$shop$14 |    00024554  A$shop$14
     00024555  A$shop$14 |    00024557  A$shop$14 |    00024558  A$shop$14
     00024559  A$shop$14 |    0002455A  A$shop$14 |    0002455C  A$shop$14
     0002455E  A$shop$14 |    00024561  A$shop$14 |    00024561  C$shop.c$
     00024562  A$shop$14 |    00024563  A$shop$14 |    00024565  A$shop$14
     00024566  A$shop$14 |    00024568  A$shop$14 |    00024569  A$shop$14
     0002456A  A$shop$14 |    0002456D  A$shop$14 |    0002456E  A$shop$14
     00024570  A$shop$14 |    00024572  A$shop$14 |    00024575  A$shop$14
     00024577  A$shop$14 |    00024577  C$shop.c$ |    00024577  XG$write_
     00024578  Fshop$__s |    0002457A  Fshop$__s |    00024580  A$shop$14
     00024580  C$shop.c$ |    00024580  G$change_ |    00024580  _change_s
     00024582  A$shop$14 |    00024582  C$shop.c$ |    00024584  A$shop$14
     00024585  A$shop$14 |    00024587  A$shop$14 |    0002458A  A$shop$14
     0002458A  C$shop.c$ |    0002458D  A$shop$14 |    0002458E  A$shop$14
     00024590  A$shop$14 |    00024591  A$shop$14 |    00024594  A$shop$14
     00024595  A$shop$14 |    00024596  A$shop$14 |    00024597  A$shop$14
     00024598  A$shop$14 |    0002459A  A$shop$14 |    0002459B  A$shop$14
     0002459C  A$shop$14 |    0002459D  A$shop$14 |    0002459E  A$shop$14
     0002459F  A$shop$14 |    000245A0  A$shop$14 |    000245A3  A$shop$14
     000245A4  A$shop$14 |    000245A5  A$shop$14 |    000245A6  A$shop$14
     000245A7  A$shop$14 |    000245A8  A$shop$14 |    000245A9  A$shop$14
     000245AA  A$shop$14 |    000245AB  A$shop$14 |    000245AB  C$shop.c$
     000245AC  A$shop$15 |    000245AE  A$shop$15 |    000245B0  A$shop$15
     000245B1  A$shop$15 |    000245B1  C$shop.c$ |    000245B2  A$shop$15
     000245B3  A$shop$15 |    000245B5  A$shop$15 |    000245B6  A$shop$15
     000245B9  A$shop$15 |    000245BA  A$shop$15 |    000245BB  A$shop$15
     000245BC  A$shop$15 |    000245BD  A$shop$15 |    000245BE  A$shop$15
     000245BF  A$shop$15 |    000245C0  A$shop$15 |    000245C3  A$shop$15
     000245C4  A$shop$15 |    000245C5  A$shop$15 |    000245C6  A$shop$15
     000245C7  A$shop$15 |    000245C9  A$shop$15 |    000245CA  A$shop$15
     000245CB  A$shop$15 |    000245CC  A$shop$15 |    000245CD  A$shop$15
     000245CF  A$shop$15 |    000245D0  A$shop$15 |    000245D1  A$shop$15
     000245D2  A$shop$15 |    000245D3  A$shop$15 |    000245D5  A$shop$15
     000245D6  A$shop$15 |    000245D7  A$shop$15 |    000245D9  A$shop$15
     000245DA  A$shop$15 |    000245DB  A$shop$15 |    000245DC  A$shop$15
     000245DD  A$shop$15 |    000245DE  A$shop$15 |    000245DF  A$shop$15
     000245E0  A$shop$15 |    000245E1  A$shop$15 |    000245E3  A$shop$15
     000245E5  A$shop$15 |    000245E7  A$shop$15 |    000245E9  A$shop$15
     000245EA  A$shop$15 |    000245EC  A$shop$15 |    000245EE  A$shop$15
     000245F0  A$shop$15 |    000245F1  A$shop$15 |    000245F3  A$shop$15
     000245F3  C$shop.c$ |    000245F4  A$shop$15 |    000245F7  A$shop$15
     000245F8  A$shop$15 |    000245FA  A$shop$15 |    000245FB  A$shop$15
     000245FC  A$shop$15 |    000245FE  A$shop$15 |    000245FF  A$shop$15
     00024600  A$shop$15 |    00024601  A$shop$15 |    00024604  A$shop$15
     00024606  A$shop$15 |    00024607  A$shop$15 |    00024609  A$shop$15
     00024609  C$shop.c$ |    0002460A  A$shop$15 |    0002460B  A$shop$15
     0002460E  A$shop$15 |    0002460F  A$shop$15 |    00024610  A$shop$15
     00024611  A$shop$15 |    00024612  A$shop$15 |    00024614  A$shop$15
     00024615  A$shop$15 |    00024616  A$shop$15 |    00024617  A$shop$15
ASxxxx Linker V03.00/V05.40 + sdld,  page 73.
Hexadecimal  [32-Bits]

Area                       Addr        Size        Decimal Bytes (Attributes)
--------------------       ----        ----        ------- ----- ------------
_CODE_2                00024000    000030C1 =       12481. bytes (REL,CON)

        Value  Global            Value  Global            Value  Global    
        -----  ------            -----  ------            -----  ------    
     00024618  A$shop$15 |    00024619  A$shop$15 |    0002461A  A$shop$15
     0002461C  A$shop$15 |    0002461D  A$shop$15 |    0002461E  A$shop$15
     00024620  A$shop$15 |    00024621  A$shop$16 |    00024622  A$shop$16
     00024623  A$shop$16 |    00024626  A$shop$16 |    00024628  A$shop$16
     00024629  A$shop$16 |    00024629  C$shop.c$ |    0002462A  A$shop$16
     0002462D  A$shop$16 |    0002462F  A$shop$16 |    0002462F  C$shop.c$
     0002462F  XG$change |    00024630  A$shop$16 |    00024630  C$shop.c$
     00024630  C$shop.c$ |    00024630  G$change_ |    00024630  _change_m
     00024632  A$shop$16 |    00024633  A$shop$16 |    00024635  A$shop$16
     00024636  A$shop$16 |    00024636  C$shop.c$ |    00024637  A$shop$16
     00024639  A$shop$16 |    0002463A  A$shop$16 |    0002463D  A$shop$16
     0002463E  A$shop$16 |    0002463F  A$shop$16 |    00024640  A$shop$16
     00024641  A$shop$16 |    00024643  A$shop$16 |    00024644  A$shop$16
     00024645  A$shop$16 |    00024647  A$shop$16 |    00024648  A$shop$16
     00024649  A$shop$16 |    0002464B  A$shop$16 |    0002464C  A$shop$16
     0002464E  A$shop$16 |    0002464F  A$shop$16 |    00024650  A$shop$16
     00024651  A$shop$16 |    00024652  A$shop$16 |    00024654  A$shop$16
     00024655  A$shop$16 |    00024656  A$shop$16 |    00024657  A$shop$16
     00024658  A$shop$16 |    00024659  A$shop$16 |    0002465B  A$shop$16
     0002465C  A$shop$16 |    0002465D  A$shop$16 |    0002465F  A$shop$16
     00024660  A$shop$16 |    00024661  A$shop$16 |    00024662  A$shop$16
     00024663  A$shop$16 |    00024666  A$shop$16 |    00024668  A$shop$16
     00024669  A$shop$16 |    00024669  C$shop.c$ |    0002466A  A$shop$17
     0002466A  C$shop.c$ |    0002466A  XG$change |    0002466C  A$shop$17
     0002466C  C$shop.c$ |    0002466C  G$attempt |    0002466C  _attempt_
     0002466E  A$shop$17 |    00024670  A$shop$17 |    00024671  A$shop$17
     00024672  A$shop$17 |    00024673  A$shop$17 |    00024673  C$shop.c$
     00024674  A$shop$17 |    00024676  A$shop$17 |    00024677  A$shop$17
     0002467A  A$shop$17 |    0002467B  A$shop$17 |    0002467C  A$shop$17
     0002467D  A$shop$17 |    0002467E  A$shop$17 |    00024680  A$shop$17
     00024681  A$shop$17 |    00024682  A$shop$17 |    00024683  A$shop$17
     00024684  A$shop$17 |    00024684  C$shop.c$ |    00024685  A$shop$17
     00024686  A$shop$17 |    00024689  A$shop$17 |    0002468A  A$shop$17
     0002468B  A$shop$17 |    0002468C  A$shop$17 |    0002468D  A$shop$17
     0002468E  A$shop$17 |    0002468F  A$shop$17 |    00024690  A$shop$17
     00024692  A$shop$17 |    00024693  A$shop$17 |    00024694  A$shop$17
     00024695  A$shop$17 |    00024696  A$shop$17 |    00024698  A$shop$17
     00024699  A$shop$17 |    0002469A  A$shop$17 |    0002469B  A$shop$17
     0002469C  A$shop$17 |    0002469C  C$shop.c$ |    0002469E  A$shop$17
     0002469F  A$shop$17 |    0002469F  C$shop.c$ |    000246A0  A$shop$17
     000246A1  A$shop$17 |    000246A4  A$shop$17 |    000246A5  A$shop$17
     000246A6  A$shop$17 |    000246A7  A$shop$17 |    000246A8  A$shop$17
     000246AA  A$shop$17 |    000246AB  A$shop$17 |    000246AB  C$shop.c$
     000246AE  A$shop$17 |    000246AE  C$shop.c$ |    000246B1  A$shop$17
     000246B2  A$shop$17 |    000246B4  A$shop$17 |    000246B5  A$shop$17
     000246B6  A$shop$17 |    000246B7  A$shop$17 |    000246B8  A$shop$17
     000246B9  A$shop$17 |    000246BA  A$shop$17 |    000246BB  A$shop$17
     000246BD  A$shop$17 |    000246BE  A$shop$17 |    000246BF  A$shop$17
     000246C0  A$shop$17 |    000246C2  A$shop$17 |    000246C3  A$shop$17
     000246C4  A$shop$17 |    000246C6  A$shop$17 |    000246C7  A$shop$18
     000246C8  A$shop$18 |    000246C9  A$shop$18 |    000246CA  A$shop$18
ASxxxx Linker V03.00/V05.40 + sdld,  page 74.
Hexadecimal  [32-Bits]

Area                       Addr        Size        Decimal Bytes (Attributes)
--------------------       ----        ----        ------- ----- ------------
_CODE_2                00024000    000030C1 =       12481. bytes (REL,CON)

        Value  Global            Value  Global            Value  Global    
        -----  ------            -----  ------            -----  ------    
     000246CB  A$shop$18 |    000246CC  A$shop$18 |    000246CE  A$shop$18
     000246CE  C$shop.c$ |    000246D0  A$shop$18 |    000246D1  A$shop$18
     000246D2  A$shop$18 |    000246D3  A$shop$18 |    000246D5  A$shop$18
     000246D6  A$shop$18 |    000246D7  A$shop$18 |    000246D8  A$shop$18
     000246D9  A$shop$18 |    000246DA  A$shop$18 |    000246DB  A$shop$18
     000246DC  A$shop$18 |    000246DD  A$shop$18 |    000246DF  A$shop$18
     000246E0  A$shop$18 |    000246E1  A$shop$18 |    000246E4  A$shop$18
     000246E5  A$shop$18 |    000246E6  A$shop$18 |    000246E7  A$shop$18
     000246E8  A$shop$18 |    000246E9  A$shop$18 |    000246E9  C$shop.c$
     000246EB  A$shop$18 |    000246EC  A$shop$18 |    000246ED  A$shop$18
     000246ED  C$shop.c$ |    000246EE  A$shop$18 |    000246EF  A$shop$18
     000246F2  A$shop$18 |    000246F3  A$shop$18 |    000246F4  A$shop$18
     000246F5  A$shop$18 |    000246F7  A$shop$18 |    000246F8  A$shop$18
     000246F9  A$shop$18 |    000246FA  A$shop$18 |    000246FC  A$shop$18
     000246FD  A$shop$18 |    000246FE  A$shop$18 |    000246FF  A$shop$18
     00024702  A$shop$18 |    00024703  A$shop$18 |    00024704  A$shop$18
     00024705  A$shop$18 |    00024707  A$shop$18 |    00024708  A$shop$18
     00024709  A$shop$18 |    0002470A  A$shop$18 |    0002470C  A$shop$18
     0002470D  A$shop$18 |    0002470E  A$shop$18 |    0002470F  A$shop$18
     00024712  A$shop$18 |    00024713  A$shop$18 |    00024714  A$shop$18
     00024715  A$shop$18 |    00024717  A$shop$18 |    00024718  A$shop$18
     00024719  A$shop$18 |    0002471A  A$shop$18 |    0002471C  A$shop$18
     0002471D  A$shop$18 |    0002471E  A$shop$18 |    0002471F  A$shop$18
     00024720  A$shop$18 |    00024722  A$shop$18 |    00024723  A$shop$18
     00024724  A$shop$18 |    00024725  A$shop$18 |    00024726  A$shop$18
     00024727  A$shop$18 |    00024728  A$shop$18 |    0002472A  A$shop$18
     0002472B  A$shop$18 |    0002472C  A$shop$18 |    0002472D  A$shop$18
     0002472E  A$shop$18 |    0002472F  A$shop$18 |    00024730  A$shop$18
     00024732  A$shop$19 |    00024732  C$shop.c$ |    00024732  XG$attemp
     00024733  A$shop$19 |    00024733  C$shop.c$ |    00024733  G$handleI
     00024733  _handleIn |    00024735  A$shop$19 |    00024737  A$shop$19
     00024738  A$shop$19 |    00024739  A$shop$19 |    0002473A  A$shop$19
     0002473C  A$shop$19 |    0002473D  A$shop$19 |    0002473E  A$shop$19
     0002473F  A$shop$19 |    0002473F  C$shop.c$ |    00024742  A$shop$19
     00024745  A$shop$19 |    00024746  A$shop$19 |    00024749  A$shop$19
     00024749  C$shop.c$ |    0002474C  A$shop$19 |    0002474E  A$shop$19
     0002474F  A$shop$19 |    00024750  A$shop$19 |    00024752  A$shop$19
     00024753  A$shop$19 |    00024755  A$shop$19 |    00024755  C$shop.c$
     00024757  A$shop$19 |    00024758  A$shop$19 |    00024759  A$shop$19
     0002475A  A$shop$19 |    0002475B  A$shop$19 |    0002475C  A$shop$19
     0002475D  A$shop$19 |    0002475E  A$shop$19 |    00024760  A$shop$19
     00024761  A$shop$19 |    00024764  A$shop$19 |    00024765  A$shop$19
     00024767  A$shop$19 |    00024768  A$shop$19 |    00024769  A$shop$19
     0002476A  A$shop$19 |    0002476B  A$shop$19 |    0002476C  A$shop$19
     0002476E  A$shop$19 |    0002476E  C$shop.c$ |    0002476F  A$shop$19
     00024771  A$shop$19 |    00024773  A$shop$19 |    00024774  A$shop$19
     00024776  A$shop$19 |    00024776  C$shop.c$ |    00024778  A$shop$19
     00024779  A$shop$19 |    0002477A  A$shop$19 |    0002477B  A$shop$19
     0002477C  A$shop$19 |    0002477D  A$shop$19 |    0002477E  A$shop$19
     0002477F  A$shop$19 |    00024781  A$shop$19 |    00024783  A$shop$19
     00024784  A$shop$19 |    00024785  A$shop$19 |    00024786  A$shop$19
ASxxxx Linker V03.00/V05.40 + sdld,  page 75.
Hexadecimal  [32-Bits]

Area                       Addr        Size        Decimal Bytes (Attributes)
--------------------       ----        ----        ------- ----- ------------
_CODE_2                00024000    000030C1 =       12481. bytes (REL,CON)

        Value  Global            Value  Global            Value  Global    
        -----  ------            -----  ------            -----  ------    
     00024787  A$shop$19 |    00024788  A$shop$19 |    00024789  A$shop$19
     0002478A  A$shop$19 |    0002478B  A$shop$19 |    0002478C  A$shop$19
     0002478E  A$shop$19 |    0002478E  C$shop.c$ |    0002478F  A$shop$19
     00024791  A$shop$19 |    00024793  A$shop$19 |    00024794  A$shop$20
     00024796  A$shop$20 |    00024796  C$shop.c$ |    00024798  A$shop$20
     00024799  A$shop$20 |    0002479A  A$shop$20 |    0002479B  A$shop$20
     0002479C  A$shop$20 |    0002479E  A$shop$20 |    0002479F  A$shop$20
     000247A0  A$shop$20 |    000247A1  A$shop$20 |    000247A2  A$shop$20
     000247A3  A$shop$20 |    000247A6  A$shop$20 |    000247A7  A$shop$20
     000247A9  A$shop$20 |    000247AC  A$shop$20 |    000247AD  A$shop$20
     000247AE  A$shop$20 |    000247B0  A$shop$20 |    000247B2  A$shop$20
     000247B3  A$shop$20 |    000247B4  A$shop$20 |    000247B6  A$shop$20
     000247B7  A$shop$20 |    000247B8  A$shop$20 |    000247B9  A$shop$20
     000247BA  A$shop$20 |    000247BC  A$shop$20 |    000247BC  C$shop.c$
     000247BD  A$shop$20 |    000247BF  A$shop$20 |    000247C1  A$shop$20
     000247C2  A$shop$20 |    000247C4  A$shop$20 |    000247C4  C$shop.c$
     000247C6  A$shop$20 |    000247C7  A$shop$20 |    000247C8  A$shop$20
     000247C9  A$shop$20 |    000247CA  A$shop$20 |    000247CB  A$shop$20
     000247CC  A$shop$20 |    000247CE  A$shop$20 |    000247CF  A$shop$20
     000247D2  A$shop$20 |    000247D5  A$shop$20 |    000247D6  A$shop$20
     000247D7  A$shop$20 |    000247D9  A$shop$20 |    000247DA  A$shop$20
     000247DC  A$shop$20 |    000247DD  A$shop$20 |    000247DE  A$shop$20
     000247E0  A$shop$20 |    000247E1  A$shop$20 |    000247E2  A$shop$20
     000247E3  A$shop$20 |    000247E4  A$shop$20 |    000247E4  C$shop.c$
     000247E7  A$shop$20 |    000247E9  A$shop$20 |    000247EC  A$shop$20
     000247EC  C$shop.c$ |    000247EE  A$shop$20 |    000247EF  A$shop$20
     000247F0  A$shop$20 |    000247F1  A$shop$20 |    000247F2  A$shop$20
     000247F3  A$shop$20 |    000247F5  A$shop$20 |    000247F6  A$shop$20
     000247F8  A$shop$20 |    000247F9  A$shop$20 |    000247FB  A$shop$20
     000247FE  A$shop$20 |    000247FF  A$shop$20 |    00024800  A$shop$20
     00024800  C$shop.c$ |    00024801  A$shop$20 |    00024803  A$shop$20
     00024805  A$shop$20 |    00024807  A$shop$21 |    00024809  A$shop$21
     0002480B  A$shop$21 |    0002480D  A$shop$21 |    0002480F  A$shop$21
     0002480F  C$shop.c$ |    00024811  A$shop$21 |    00024812  A$shop$21
     00024813  A$shop$21 |    00024814  A$shop$21 |    00024815  A$shop$21
     00024815  C$shop.c$ |    00024816  A$shop$21 |    00024818  A$shop$21
     00024819  A$shop$21 |    0002481A  A$shop$21 |    0002481B  A$shop$21
     0002481C  A$shop$21 |    0002481E  A$shop$21 |    00024820  A$shop$21
     00024820  C$shop.c$ |    00024822  A$shop$21 |    00024824  A$shop$21
     00024826  A$shop$21 |    00024827  A$shop$21 |    00024828  A$shop$21
     00024829  A$shop$21 |    0002482B  A$shop$21 |    0002482D  A$shop$21
     0002482D  C$shop.c$ |    0002482F  A$shop$21 |    00024831  A$shop$21
     00024833  A$shop$21 |    00024834  A$shop$21 |    00024835  A$shop$21
     00024836  A$shop$21 |    00024838  A$shop$21 |    0002483A  A$shop$21
     0002483A  C$shop.c$ |    0002483C  A$shop$21 |    0002483E  A$shop$21
     00024840  A$shop$21 |    00024841  A$shop$21 |    00024842  A$shop$21
     00024843  A$shop$21 |    00024845  A$shop$21 |    00024847  A$shop$21
     00024847  C$shop.c$ |    00024849  A$shop$21 |    0002484B  A$shop$21
     0002484D  A$shop$21 |    0002484E  A$shop$21 |    0002484F  A$shop$21
     00024850  A$shop$21 |    00024852  A$shop$21 |    00024854  A$shop$21
     00024854  C$shop.c$ |    00024856  A$shop$21 |    00024858  A$shop$21
ASxxxx Linker V03.00/V05.40 + sdld,  page 76.
Hexadecimal  [32-Bits]

Area                       Addr        Size        Decimal Bytes (Attributes)
--------------------       ----        ----        ------- ----- ------------
_CODE_2                00024000    000030C1 =       12481. bytes (REL,CON)

        Value  Global            Value  Global            Value  Global    
        -----  ------            -----  ------            -----  ------    
     0002485A  A$shop$21 |    0002485B  A$shop$21 |    0002485C  A$shop$21
     0002485D  A$shop$21 |    0002485F  A$shop$21 |    0002485F  C$shop.c$
     00024861  A$shop$21 |    00024861  C$shop.c$ |    00024861  C$shop.c$
     00024863  A$shop$21 |    00024864  A$shop$21 |    00024865  A$shop$21
     00024866  A$shop$21 |    00024867  A$shop$21 |    0002486A  A$shop$22
     0002486A  C$shop.c$ |    0002486A  C$shop.c$ |    0002486D  A$shop$22
     0002486F  A$shop$22 |    00024871  A$shop$22 |    00024871  C$shop.c$
     00024873  A$shop$22 |    00024874  A$shop$22 |    00024875  A$shop$22
     00024876  A$shop$22 |    00024877  A$shop$22 |    00024878  A$shop$22
     0002487A  A$shop$22 |    0002487B  A$shop$22 |    0002487D  A$shop$22
     0002487F  A$shop$22 |    00024882  A$shop$22 |    00024883  A$shop$22
     00024884  A$shop$22 |    00024885  A$shop$22 |    00024886  A$shop$22
     00024889  A$shop$22 |    0002488C  A$shop$22 |    0002488F  A$shop$22
     00024892  A$shop$22 |    00024895  A$shop$22 |    00024898  A$shop$22
     0002489B  A$shop$22 |    0002489B  C$shop.c$ |    0002489B  C$shop.c$
     0002489E  A$shop$22 |    000248A0  A$shop$22 |    000248A0  C$shop.c$
     000248A3  A$shop$22 |    000248A5  A$shop$22 |    000248A5  C$shop.c$
     000248A8  A$shop$22 |    000248AA  A$shop$22 |    000248AA  C$shop.c$
     000248AD  A$shop$22 |    000248AF  A$shop$22 |    000248AF  C$shop.c$
     000248B2  A$shop$22 |    000248B4  A$shop$22 |    000248B4  C$shop.c$
     000248B7  A$shop$22 |    000248B9  A$shop$22 |    000248B9  C$shop.c$
     000248BC  A$shop$22 |    000248BE  A$shop$22 |    000248BE  C$shop.c$
     000248C1  A$shop$22 |    000248C3  A$shop$22 |    000248C3  C$shop.c$
     000248C5  A$shop$22 |    000248C5  C$shop.c$ |    000248C5  C$shop.c$
     000248C7  A$shop$22 |    000248C8  A$shop$22 |    000248C9  A$shop$22
     000248CA  A$shop$22 |    000248CC  A$shop$23 |    000248CC  C$shop.c$
     000248CE  A$shop$23 |    000248CE  C$shop.c$ |    000248CE  XG$handle
     000248CF  C$buttonf |    000248CF  G$__func_ |    000248CF  G$buttonf
     000248CF  ___func_b |    000248CF  _buttonfr |    0002490F  C$menubut
     0002490F  G$__func_ |    0002490F  G$menubut |    0002490F  ___func_m
     0002490F  _menubutt |    00024A5F  G$menubut |    00024A5F  _menubutt
     00024AB7  G$menubut |    00024AB7  _menubutt |    00024AB9  C$shopfra
     00024AB9  G$__func_ |    00024AB9  G$shopfra |    00024AB9  ___func_s
     00024AB9  _shopfram |    00024AC1  G$shopfra |    00024AC1  _shopfram
     00024B51  G$shopfra |    00024B51  _shopfram |    00024CB9  C$shoptil
     00024CB9  G$__func_ |    00024CB9  G$shoptil |    00024CB9  ___func_s
     00024CB9  _shoptile |    00024CC1  G$shoptil |    00024CC1  _shoptile
ASxxxx Linker V03.00/V05.40 + sdld,  page 77.
Hexadecimal  [32-Bits]

Area                       Addr        Size        Decimal Bytes (Attributes)
--------------------       ----        ----        ------- ----- ------------
_FONT_HEADER0          00000000    00000003 =           3. bytes (ABS,CON)

        Value  Global            Value  Global            Value  Global    
        -----  ------            -----  ------            -----  ------    
ASxxxx Linker V03.00/V05.40 + sdld,  page 78.
Hexadecimal  [32-Bits]

Area                       Addr        Size        Decimal Bytes (Attributes)
--------------------       ----        ----        ------- ----- ------------
_HEADER_LCD0           00000000    00000003 =           3. bytes (ABS,CON)

        Value  Global            Value  Global            Value  Global    
        -----  ------            -----  ------            -----  ------    
ASxxxx Linker V03.00/V05.40 + sdld,  page 79.

Files Linked                              [ module(s) ]

/usr/local/opt/gbdk/lib/gb/crt0.o         [ Runtime ]
obj/attributes.o                          [ attributes ]
obj/font.o                                [ font ]
obj/gameloop.o                            [ gameloop ]
obj/general.o                             [ general ]
obj/globals.o                             [ globals ]
obj/interrupt.o                           [ interrupt ]
obj/inventory.o                           [ inventory ]
obj/level.o                               [ level ]
obj/main.o                                [ main ]
obj/map.o                                 [ map ]
obj/menuloop.o                            [ menuloop ]
obj/palettes.o                            [ palettes ]
obj/player.o                              [ player ]
obj/shop.o                                [ shop ]
obj/buttonframe.o                         [ buttonframe ]
obj/menubuttons.o                         [ menubuttons ]
obj/nav.o                                 [ nav ]
obj/progressbar.o                         [ progressbar ]
obj/rover.o                               [ rover ]
obj/shopframe.o                           [ shopframe ]
obj/shoptiles.o                           [ shoptiles ]
obj/tile.o                                [ tile ]


Libraries Linked                          [ object file ]

/usr/local/opt/gbdk/lib/gb/gb.lib         [ sfr.o ]
/usr/local/opt/gbdk/lib/gb/gb.lib         [ font.o ]
/usr/local/opt/gbdk/lib/sm83/sm83.lib     [ rand.o ]
/usr/local/opt/gbdk/lib/gb/gb.lib         [ set_1bit_data.o ]
/usr/local/opt/gbdk/lib/gb/gb.lib         [ pad.o ]
/usr/local/opt/gbdk/lib/sm83/sm83.lib     [ itoa.o ]
/usr/local/opt/gbdk/lib/gb/gb.lib         [ cgb_palettes.o ]
/usr/local/opt/gbdk/lib/gb/gb.lib         [ set_data.o ]
/usr/local/opt/gbdk/lib/sm83/sm83.lib     [ mul.o ]
/usr/local/opt/gbdk/lib/gb/gb.lib         [ set_tile.o ]
/usr/local/opt/gbdk/lib/gb/gb.lib         [ metasprites_hide.o ]
/usr/local/opt/gbdk/lib/sm83/sm83.lib     [ abs.o ]
/usr/local/opt/gbdk/lib/gb/gb.lib         [ get_addr.o ]
/usr/local/opt/gbdk/lib/gb/gb.lib         [ set_wi_t.o ]
/usr/local/opt/gbdk/lib/gb/gb.lib         [ lcd.o ]
/usr/local/opt/gbdk/lib/sm83/sm83.lib     [ sprintf.o ]
/usr/local/opt/gbdk/lib/gb/gb.lib         [ metasprites.o ]
/usr/local/opt/gbdk/lib/sm83/sm83.lib     [ __sdcc_call_hl.o ]
/usr/local/opt/gbdk/lib/sm83/sm83.lib     [ memcpy.o ]
/usr/local/opt/gbdk/lib/gb/gb.lib         [ color.o ]
/usr/local/opt/gbdk/lib/gb/gb.lib         [ drawing_isr.o ]
/usr/local/opt/gbdk/lib/gb/gb.lib         [ f_ibm_sh.o ]
/usr/local/opt/gbdk/lib/sm83/sm83.lib     [ strcat.o ]
/usr/local/opt/gbdk/lib/gb/gb.lib         [ metasprites_flip.o ]
/usr/local/opt/gbdk/lib/sm83/sm83.lib     [ strlen.o ]
/usr/local/opt/gbdk/lib/sm83/sm83.lib     [ div.o ]
/usr/local/opt/gbdk/lib/gb/gb.lib         [ set_bk_t.o ]
/usr/local/opt/gbdk/lib/gb/gb.lib         [ set_xy_t.o ]

ASxxxx Linker V03.00/V05.40 + sdld,  page 80.

User Base Address Definitions

_DATA=0xC0A0
_CODE=0x0200
ASxxxx Linker V03.00/V05.40 + sdld,  page 81.

User Global Definitions

_shadow_OAM=0xC000
.STACK=0xE000
.refresh_OAM=0xFF80

